---
triple:          'x86_64-apple-darwin'
binary-path:     '/Users/eam/Documents/GIT/best-fractions/best_fractions'
relocations:
  - { offsetInCU: 0x4C45, offset: 0x4C45, size: 0x8, addend: 0x0, symName: __ZNSt3__124__put_character_sequenceB8ue170006IcNS_11char_traitsIcEEEERNS_13basic_ostreamIT_T0_EES7_PKS4_m, symObjAddr: 0x2F50, symBinAddr: 0x100003700, symSize: 0x1F0 }
  - { offsetInCU: 0x7ACD, offset: 0x7ACD, size: 0x8, addend: 0x0, symName: __ZNSt3__117__floyd_sift_downB8ue170006INS_17_ClassicAlgPolicyER12CompareDeltaNS_11__wrap_iterIPNS_4pairIdNS5_IiiEEEEEEEET1_SA_OT0_NS_15iterator_traitsISA_E15difference_typeE, symObjAddr: 0x5800, symBinAddr: 0x100005FB0, symSize: 0x130 }
  - { offsetInCU: 0x8094, offset: 0x8094, size: 0x8, addend: 0x0, symName: __ZNSt3__117__floyd_sift_downB8ue170006INS_17_ClassicAlgPolicyER10CompareSumNS_11__wrap_iterIPNS_4pairINS5_IdNS5_IiiEEEEiEEEEEET1_SB_OT0_NS_15iterator_traitsISB_E15difference_typeE, symObjAddr: 0x7C40, symBinAddr: 0x1000083F0, symSize: 0x130 }
  - { offsetInCU: 0x97AE, offset: 0x97AE, size: 0x8, addend: 0x0, symName: __ZNSt3__1lsB8ue170006IcNS_11char_traitsIcEEEERNS_13basic_ostreamIT_T0_EES7_RKNS_8__iom_t5E, symObjAddr: 0x510, symBinAddr: 0x100000CC0, symSize: 0x40 }
  - { offsetInCU: 0x97FA, offset: 0x97FA, size: 0x8, addend: 0x0, symName: __ZNSt3__15fixedB8ue170006ERNS_8ios_baseE, symObjAddr: 0x580, symBinAddr: 0x100000D30, symSize: 0x30 }
  - { offsetInCU: 0x9828, offset: 0x9828, size: 0x8, addend: 0x0, symName: __ZNSt3__112setprecisionB8ue170006Ei, symObjAddr: 0x5B0, symBinAddr: 0x100000D60, symSize: 0x20 }
  - { offsetInCU: 0x985F, offset: 0x985F, size: 0x8, addend: 0x0, symName: __ZNSt3__1lsB8ue170006INS_11char_traitsIcEEEERNS_13basic_ostreamIcT_EES6_PKc, symObjAddr: 0xAC0, symBinAddr: 0x100001270, symSize: 0x40 }
  - { offsetInCU: 0x98A5, offset: 0x98A5, size: 0x8, addend: 0x0, symName: __ZNSt3__1lsB8ue170006IcNS_11char_traitsIcEEEERNS_13basic_ostreamIT_T0_EES7_RKNS_8__iom_t6E, symObjAddr: 0xB00, symBinAddr: 0x1000012B0, symSize: 0x40 }
  - { offsetInCU: 0x98F4, offset: 0x98F4, size: 0x8, addend: 0x0, symName: __ZNSt3__14setwB8ue170006Ei, symObjAddr: 0xB40, symBinAddr: 0x1000012F0, symSize: 0x20 }
  - { offsetInCU: 0x9922, offset: 0x9922, size: 0x8, addend: 0x0, symName: __ZNSt3__14endlB8ue170006IcNS_11char_traitsIcEEEERNS_13basic_ostreamIT_T0_EES7_, symObjAddr: 0xB80, symBinAddr: 0x100001330, symSize: 0x50 }
  - { offsetInCU: 0x9962, offset: 0x9962, size: 0x8, addend: 0x0, symName: __ZNSt3__1neB8ue170006IPKNS_4pairIdNS1_IiiEEEEEEbRKNS_11__wrap_iterIT_EESA_, symObjAddr: 0xC30, symBinAddr: 0x1000013E0, symSize: 0x30 }
  - { offsetInCU: 0x99A5, offset: 0x99A5, size: 0x8, addend: 0x0, symName: __ZNSt3__1lsB8ue170006IcNS_11char_traitsIcEENS_9allocatorIcEEEERNS_13basic_ostreamIT_T0_EES9_RKNS_12basic_stringIS6_S7_T1_EE, symObjAddr: 0xC80, symBinAddr: 0x100001430, symSize: 0x50 }
  - { offsetInCU: 0x9BF8, offset: 0x9BF8, size: 0x8, addend: 0x0, symName: __ZNSt3__17reverseB8ue170006INS_11__wrap_iterIPNS_4pairIdNS2_IiiEEEEEEEEvT_S7_, symObjAddr: 0x1810, symBinAddr: 0x100001FC0, symSize: 0x40 }
  - { offsetInCU: 0x9E32, offset: 0x9E32, size: 0x8, addend: 0x0, symName: __ZNSt3__1eqB8ue170006IPKNS_4pairIdNS1_IiiEEEEEEbRKNS_11__wrap_iterIT_EESA_, symObjAddr: 0x1E70, symBinAddr: 0x100002620, symSize: 0x40 }
  - { offsetInCU: 0x9E75, offset: 0x9E75, size: 0x8, addend: 0x0, symName: __ZNSt3__112__to_addressB8ue170006INS_4pairINS1_IdNS1_IiiEEEEiEEEEPT_S6_, symObjAddr: 0x2300, symBinAddr: 0x100002AB0, symSize: 0x10 }
  - { offsetInCU: 0x9EAA, offset: 0x9EAA, size: 0x8, addend: 0x0, symName: __ZNSt3__119__libcpp_deallocateB8ue170006EPvmm, symObjAddr: 0x23E0, symBinAddr: 0x100002B90, symSize: 0x30 }
  - { offsetInCU: 0x9EF2, offset: 0x9EF2, size: 0x8, addend: 0x0, symName: __ZNSt3__127__do_deallocate_handle_sizeB8ue170006IJEEEvPvmDpT_, symObjAddr: 0x2410, symBinAddr: 0x100002BC0, symSize: 0x20 }
  - { offsetInCU: 0x9F30, offset: 0x9F30, size: 0x8, addend: 0x0, symName: __ZNSt3__124__libcpp_operator_deleteB8ue170006IJPvEEEvDpT_, symObjAddr: 0x2430, symBinAddr: 0x100002BE0, symSize: 0x20 }
  - { offsetInCU: 0x9F65, offset: 0x9F65, size: 0x8, addend: 0x0, symName: __ZNSt3__118__constexpr_strlenB8ue170006EPKc, symObjAddr: 0x26C0, symBinAddr: 0x100002E70, symSize: 0x20 }
  - { offsetInCU: 0x9F91, offset: 0x9F91, size: 0x8, addend: 0x0, symName: __ZNSt3__123__str_find_first_not_ofB8ue170006IcmNS_11char_traitsIcEELm18446744073709551615EEET0_PKT_S3_S4_S3_, symObjAddr: 0x2A60, symBinAddr: 0x100003210, symSize: 0xB0 }
  - { offsetInCU: 0xA054, offset: 0xA054, size: 0x8, addend: 0x0, symName: __ZNSt3__112__to_addressB8ue170006IKcEEPT_S3_, symObjAddr: 0x2B70, symBinAddr: 0x100003320, symSize: 0x10 }
  - { offsetInCU: 0xA0EF, offset: 0xA0EF, size: 0x8, addend: 0x0, symName: __ZNSt3__122__str_find_last_not_ofB8ue170006IcmNS_11char_traitsIcEELm18446744073709551615EEET0_PKT_S3_S4_S3_, symObjAddr: 0x2CE0, symBinAddr: 0x100003490, symSize: 0xB0 }
  - { offsetInCU: 0xA195, offset: 0xA195, size: 0x8, addend: 0x0, symName: __ZNSt3__112__to_addressB8ue170006IcEEPT_S2_, symObjAddr: 0x2E20, symBinAddr: 0x1000035D0, symSize: 0x10 }
  - { offsetInCU: 0xA1CA, offset: 0xA1CA, size: 0x8, addend: 0x0, symName: __ZNSt3__116__pad_and_outputB8ue170006IcNS_11char_traitsIcEEEENS_19ostreambuf_iteratorIT_T0_EES6_PKS4_S8_S8_RNS_8ios_baseES4_, symObjAddr: 0x3160, symBinAddr: 0x100003910, symSize: 0x220 }
  - { offsetInCU: 0xA29A, offset: 0xA29A, size: 0x8, addend: 0x0, symName: __ZNSt3__19use_facetB8ue170006INS_5ctypeIcEEEERKT_RKNS_6localeE, symObjAddr: 0x3690, symBinAddr: 0x100003E40, symSize: 0x30 }
  - { offsetInCU: 0xA767, offset: 0xA767, size: 0x8, addend: 0x0, symName: __ZNSt3__112__to_addressB8ue170006INS_4pairIdNS1_IiiEEEEEEPT_S5_, symObjAddr: 0x3AD0, symBinAddr: 0x100004280, symSize: 0x10 }
  - { offsetInCU: 0xA79C, offset: 0xA79C, size: 0x8, addend: 0x0, symName: __ZNSt3__19push_heapB8ue170006INS_11__wrap_iterIPNS_4pairIdNS2_IiiEEEEEE12CompareDeltaEEvT_S8_T0_, symObjAddr: 0x3C70, symBinAddr: 0x100004420, symSize: 0x40 }
  - { offsetInCU: 0xA7F2, offset: 0xA7F2, size: 0x8, addend: 0x0, symName: __ZNSt3__13maxB8ue170006ImEERKT_S3_S3_, symObjAddr: 0x4210, symBinAddr: 0x1000049C0, symSize: 0x30 }
  - { offsetInCU: 0xA835, offset: 0xA835, size: 0x8, addend: 0x0, symName: __ZNSt3__13minB8ue170006ImEERKT_S3_S3_, symObjAddr: 0x4240, symBinAddr: 0x1000049F0, symSize: 0x30 }
  - { offsetInCU: 0xAA79, offset: 0xAA79, size: 0x8, addend: 0x0, symName: __ZNSt3__13minB8ue170006ImNS_6__lessIvvEEEERKT_S5_S5_T0_, symObjAddr: 0x42C0, symBinAddr: 0x100004A70, symSize: 0x50 }
  - { offsetInCU: 0xAB18, offset: 0xAB18, size: 0x8, addend: 0x0, symName: __ZNSt3__120__throw_length_errorB8ue170006EPKc, symObjAddr: 0x43A0, symBinAddr: 0x100004B50, symSize: 0x70 }
  - { offsetInCU: 0xAB42, offset: 0xAB42, size: 0x8, addend: 0x0, symName: __ZNSt3__13maxB8ue170006ImNS_6__lessIvvEEEERKT_S5_S5_T0_, symObjAddr: 0x4480, symBinAddr: 0x100004C30, symSize: 0x50 }
  - { offsetInCU: 0xAB9C, offset: 0xAB9C, size: 0x8, addend: 0x0, symName: __ZNSt3__119__allocate_at_leastB8ue170006INS_9allocatorINS_4pairIdNS2_IiiEEEEEEEENS_19__allocation_resultINS_16allocator_traitsIT_E7pointerEEERS8_m, symObjAddr: 0x45D0, symBinAddr: 0x100004D80, symSize: 0x40 }
  - { offsetInCU: 0xABDF, offset: 0xABDF, size: 0x8, addend: 0x0, symName: __ZNSt3__117__libcpp_allocateB8ue170006Emm, symObjAddr: 0x4760, symBinAddr: 0x100004F10, symSize: 0x20 }
  - { offsetInCU: 0xAC1C, offset: 0xAC1C, size: 0x8, addend: 0x0, symName: __ZNSt3__121__libcpp_operator_newB8ue170006IJmEEEPvDpT_, symObjAddr: 0x4780, symBinAddr: 0x100004F30, symSize: 0x20 }
  - { offsetInCU: 0xAC55, offset: 0xAC55, size: 0x8, addend: 0x0, symName: __ZNSt3__142__uninitialized_allocator_move_if_noexceptB8ue170006INS_9allocatorINS_4pairIdNS2_IiiEEEEEENS_16reverse_iteratorIPS4_EES8_S8_EET2_RT_T0_T1_S9_, symObjAddr: 0x4800, symBinAddr: 0x100004FB0, symSize: 0x180 }
  - { offsetInCU: 0xACF4, offset: 0xACF4, size: 0x8, addend: 0x0, symName: __ZNSt3__14swapB8ue170006IPNS_4pairIdNS1_IiiEEEEEENS_9enable_ifIXaasr21is_move_constructibleIT_EE5valuesr18is_move_assignableIS6_EE5valueEvE4typeERS6_S9_, symObjAddr: 0x49D0, symBinAddr: 0x100005180, symSize: 0x40 }
  - { offsetInCU: 0xAD45, offset: 0xAD45, size: 0x8, addend: 0x0, symName: __ZNSt3__122__make_exception_guardB8ue170006INS_29_AllocatorDestroyRangeReverseINS_9allocatorINS_4pairIdNS3_IiiEEEEEENS_16reverse_iteratorIPS5_EEEEEENS_28__exception_guard_exceptionsIT_EESC_, symObjAddr: 0x4AC0, symBinAddr: 0x100005270, symSize: 0x60 }
  - { offsetInCU: 0xAD7A, offset: 0xAD7A, size: 0x8, addend: 0x0, symName: __ZNSt3__1neB8ue170006IPNS_4pairIdNS1_IiiEEEES4_EEbRKNS_16reverse_iteratorIT_EERKNS5_IT0_EE, symObjAddr: 0x4B60, symBinAddr: 0x100005310, symSize: 0x40 }
  - { offsetInCU: 0xADC6, offset: 0xADC6, size: 0x8, addend: 0x0, symName: __ZNSt3__112__to_addressB8ue170006INS_16reverse_iteratorIPNS_4pairIdNS2_IiiEEEEEEvEEu7__decayIDTclsr19__to_address_helperIT_EE6__callclsr3stdE7declvalIRKS7_EEEEES9_, symObjAddr: 0x4BA0, symBinAddr: 0x100005350, symSize: 0x20 }
  - { offsetInCU: 0xAE25, offset: 0xAE25, size: 0x8, addend: 0x0, symName: __ZNSt3__119__allocator_destroyB8ue170006INS_9allocatorINS_4pairIdNS2_IiiEEEEEENS_16reverse_iteratorINS6_IPS4_EEEES9_EEvRT_T0_T1_, symObjAddr: 0x4E90, symBinAddr: 0x100005640, symSize: 0x70 }
  - { offsetInCU: 0xAE88, offset: 0xAE88, size: 0x8, addend: 0x0, symName: __ZNSt3__1neB8ue170006INS_16reverse_iteratorIPNS_4pairIdNS2_IiiEEEEEES6_EEbRKNS1_IT_EERKNS1_IT0_EE, symObjAddr: 0x4F30, symBinAddr: 0x1000056E0, symSize: 0x50 }
  - { offsetInCU: 0xAED4, offset: 0xAED4, size: 0x8, addend: 0x0, symName: __ZNSt3__112__to_addressB8ue170006INS_16reverse_iteratorINS1_IPNS_4pairIdNS2_IiiEEEEEEEEvEEu7__decayIDTclsr19__to_address_helperIT_EE6__callclsr3stdE7declvalIRKS8_EEEEESA_, symObjAddr: 0x4F80, symBinAddr: 0x100005730, symSize: 0x20 }
  - { offsetInCU: 0xAF33, offset: 0xAF33, size: 0x8, addend: 0x0, symName: __ZNSt3__111__push_heapB8ue170006INS_17_ClassicAlgPolicyENS_11__wrap_iterIPNS_4pairIdNS3_IiiEEEEEE12CompareDeltaEEvT0_S9_RT1_, symObjAddr: 0x52D0, symBinAddr: 0x100005A80, symSize: 0x50 }
  - { offsetInCU: 0xAFA0, offset: 0xAFA0, size: 0x8, addend: 0x0, symName: __ZNSt3__1miB8ue170006IPNS_4pairIdNS1_IiiEEEES4_EEDTmicldtfp_4baseEcldtfp0_4baseEERKNS_11__wrap_iterIT_EERKNS6_IT0_EE, symObjAddr: 0x5320, symBinAddr: 0x100005AD0, symSize: 0x40 }
  - { offsetInCU: 0xAFEC, offset: 0xAFEC, size: 0x8, addend: 0x0, symName: __ZNSt3__19__sift_upB8ue170006INS_17_ClassicAlgPolicyER12CompareDeltaNS_11__wrap_iterIPNS_4pairIdNS5_IiiEEEEEEEEvT1_SA_OT0_NS_15iterator_traitsISA_E15difference_typeE, symObjAddr: 0x5360, symBinAddr: 0x100005B10, symSize: 0x160 }
  - { offsetInCU: 0xB16A, offset: 0xB16A, size: 0x8, addend: 0x0, symName: __ZNSt3__18pop_heapB8ue170006INS_11__wrap_iterIPNS_4pairIdNS2_IiiEEEEEE12CompareDeltaEEvT_S8_T0_, symObjAddr: 0x5650, symBinAddr: 0x100005E00, symSize: 0x50 }
  - { offsetInCU: 0xB1CE, offset: 0xB1CE, size: 0x8, addend: 0x0, symName: __ZNSt3__110__pop_heapB8ue170006INS_17_ClassicAlgPolicyE12CompareDeltaNS_11__wrap_iterIPNS_4pairIdNS4_IiiEEEEEEEEvT1_S9_RT0_NS_15iterator_traitsIS9_E15difference_typeE, symObjAddr: 0x56D0, symBinAddr: 0x100005E80, symSize: 0x130 }
  - { offsetInCU: 0xB27E, offset: 0xB27E, size: 0x8, addend: 0x0, symName: __ZNSt3__1eqB8ue170006IPNS_4pairIdNS1_IiiEEEEEEbRKNS_11__wrap_iterIT_EES9_, symObjAddr: 0x5930, symBinAddr: 0x1000060E0, symSize: 0x40 }
  - { offsetInCU: 0xB2C1, offset: 0xB2C1, size: 0x8, addend: 0x0, symName: __ZNSt3__19__reverseB8ue170006INS_17_ClassicAlgPolicyENS_11__wrap_iterIPNS_4pairIdNS3_IiiEEEEEES7_EEvT0_T1_, symObjAddr: 0x5E10, symBinAddr: 0x1000065C0, symSize: 0x40 }
  - { offsetInCU: 0xB312, offset: 0xB312, size: 0x8, addend: 0x0, symName: __ZNSt3__114__reverse_implB8ue170006INS_17_ClassicAlgPolicyENS_11__wrap_iterIPNS_4pairIdNS3_IiiEEEEEEEEvT0_S8_NS_26random_access_iterator_tagE, symObjAddr: 0x5E50, symBinAddr: 0x100006600, symSize: 0x80 }
  - { offsetInCU: 0xB364, offset: 0xB364, size: 0x8, addend: 0x0, symName: __ZNSt3__1neB8ue170006IPNS_4pairIdNS1_IiiEEEEEEbRKNS_11__wrap_iterIT_EES9_, symObjAddr: 0x5ED0, symBinAddr: 0x100006680, symSize: 0x30 }
  - { offsetInCU: 0xB3A7, offset: 0xB3A7, size: 0x8, addend: 0x0, symName: __ZNSt3__1ltB8ue170006IPNS_4pairIdNS1_IiiEEEEEEbRKNS_11__wrap_iterIT_EES9_, symObjAddr: 0x5F00, symBinAddr: 0x1000066B0, symSize: 0x40 }
  - { offsetInCU: 0xB3EA, offset: 0xB3EA, size: 0x8, addend: 0x0, symName: __ZNSt3__19iter_swapB8ue170006INS_11__wrap_iterIPNS_4pairIdNS2_IiiEEEEEES6_EEvT_T0_, symObjAddr: 0x5F80, symBinAddr: 0x100006730, symSize: 0x40 }
  - { offsetInCU: 0xB432, offset: 0xB432, size: 0x8, addend: 0x0, symName: __ZNSt3__14swapB8ue170006IdNS_4pairIiiEEEENS_9enable_ifIXaasr14__is_swappableIT_EE5valuesr14__is_swappableIT0_EE5valueEvE4typeERNS1_IS4_S5_EES9_, symObjAddr: 0x5FC0, symBinAddr: 0x100006770, symSize: 0x30 }
  - { offsetInCU: 0xB481, offset: 0xB481, size: 0x8, addend: 0x0, symName: __ZNSt3__14swapB8ue170006IdEENS_9enable_ifIXaasr21is_move_constructibleIT_EE5valuesr18is_move_assignableIS2_EE5valueEvE4typeERS2_S5_, symObjAddr: 0x6030, symBinAddr: 0x1000067E0, symSize: 0x40 }
  - { offsetInCU: 0xB4D2, offset: 0xB4D2, size: 0x8, addend: 0x0, symName: __ZNSt3__14swapB8ue170006IiiEENS_9enable_ifIXaasr14__is_swappableIT_EE5valuesr14__is_swappableIT0_EE5valueEvE4typeERNS_4pairIS2_S3_EES8_, symObjAddr: 0x6070, symBinAddr: 0x100006820, symSize: 0x30 }
  - { offsetInCU: 0xB521, offset: 0xB521, size: 0x8, addend: 0x0, symName: __ZNSt3__14swapB8ue170006IiEENS_9enable_ifIXaasr21is_move_constructibleIT_EE5valuesr18is_move_assignableIS2_EE5valueEvE4typeERS2_S5_, symObjAddr: 0x60E0, symBinAddr: 0x100006890, symSize: 0x30 }
  - { offsetInCU: 0xB572, offset: 0xB572, size: 0x8, addend: 0x0, symName: __ZNSt3__19push_heapB8ue170006INS_11__wrap_iterIPNS_4pairINS2_IdNS2_IiiEEEEiEEEE10CompareSumEEvT_S9_T0_, symObjAddr: 0x62E0, symBinAddr: 0x100006A90, symSize: 0x40 }
  - { offsetInCU: 0xB5C8, offset: 0xB5C8, size: 0x8, addend: 0x0, symName: __ZNSt3__119__allocate_at_leastB8ue170006INS_9allocatorINS_4pairINS2_IdNS2_IiiEEEEiEEEEEENS_19__allocation_resultINS_16allocator_traitsIT_E7pointerEEERS9_m, symObjAddr: 0x6A60, symBinAddr: 0x100007210, symSize: 0x40 }
  - { offsetInCU: 0xB60B, offset: 0xB60B, size: 0x8, addend: 0x0, symName: __ZNSt3__142__uninitialized_allocator_move_if_noexceptB8ue170006INS_9allocatorINS_4pairINS2_IdNS2_IiiEEEEiEEEENS_16reverse_iteratorIPS5_EES9_S9_EET2_RT_T0_T1_SA_, symObjAddr: 0x6BF0, symBinAddr: 0x1000073A0, symSize: 0x180 }
  - { offsetInCU: 0xB6AA, offset: 0xB6AA, size: 0x8, addend: 0x0, symName: __ZNSt3__14swapB8ue170006IPNS_4pairINS1_IdNS1_IiiEEEEiEEEENS_9enable_ifIXaasr21is_move_constructibleIT_EE5valuesr18is_move_assignableIS7_EE5valueEvE4typeERS7_SA_, symObjAddr: 0x6DC0, symBinAddr: 0x100007570, symSize: 0x40 }
  - { offsetInCU: 0xB6FB, offset: 0xB6FB, size: 0x8, addend: 0x0, symName: __ZNSt3__122__make_exception_guardB8ue170006INS_29_AllocatorDestroyRangeReverseINS_9allocatorINS_4pairINS3_IdNS3_IiiEEEEiEEEENS_16reverse_iteratorIPS6_EEEEEENS_28__exception_guard_exceptionsIT_EESD_, symObjAddr: 0x6EA0, symBinAddr: 0x100007650, symSize: 0x60 }
  - { offsetInCU: 0xB730, offset: 0xB730, size: 0x8, addend: 0x0, symName: __ZNSt3__1neB8ue170006IPNS_4pairINS1_IdNS1_IiiEEEEiEES5_EEbRKNS_16reverse_iteratorIT_EERKNS6_IT0_EE, symObjAddr: 0x6F40, symBinAddr: 0x1000076F0, symSize: 0x40 }
  - { offsetInCU: 0xB77C, offset: 0xB77C, size: 0x8, addend: 0x0, symName: __ZNSt3__112__to_addressB8ue170006INS_16reverse_iteratorIPNS_4pairINS2_IdNS2_IiiEEEEiEEEEvEEu7__decayIDTclsr19__to_address_helperIT_EE6__callclsr3stdE7declvalIRKS8_EEEEESA_, symObjAddr: 0x6F80, symBinAddr: 0x100007730, symSize: 0x20 }
  - { offsetInCU: 0xB7DB, offset: 0xB7DB, size: 0x8, addend: 0x0, symName: __ZNSt3__119__allocator_destroyB8ue170006INS_9allocatorINS_4pairINS2_IdNS2_IiiEEEEiEEEENS_16reverse_iteratorINS7_IPS5_EEEESA_EEvRT_T0_T1_, symObjAddr: 0x7270, symBinAddr: 0x100007A20, symSize: 0x70 }
  - { offsetInCU: 0xB83E, offset: 0xB83E, size: 0x8, addend: 0x0, symName: __ZNSt3__1neB8ue170006INS_16reverse_iteratorIPNS_4pairINS2_IdNS2_IiiEEEEiEEEES7_EEbRKNS1_IT_EERKNS1_IT0_EE, symObjAddr: 0x7310, symBinAddr: 0x100007AC0, symSize: 0x50 }
  - { offsetInCU: 0xB88A, offset: 0xB88A, size: 0x8, addend: 0x0, symName: __ZNSt3__112__to_addressB8ue170006INS_16reverse_iteratorINS1_IPNS_4pairINS2_IdNS2_IiiEEEEiEEEEEEvEEu7__decayIDTclsr19__to_address_helperIT_EE6__callclsr3stdE7declvalIRKS9_EEEEESB_, symObjAddr: 0x7360, symBinAddr: 0x100007B10, symSize: 0x20 }
  - { offsetInCU: 0xB8E9, offset: 0xB8E9, size: 0x8, addend: 0x0, symName: __ZNSt3__111__push_heapB8ue170006INS_17_ClassicAlgPolicyENS_11__wrap_iterIPNS_4pairINS3_IdNS3_IiiEEEEiEEEE10CompareSumEEvT0_SA_RT1_, symObjAddr: 0x76C0, symBinAddr: 0x100007E70, symSize: 0x50 }
  - { offsetInCU: 0xB956, offset: 0xB956, size: 0x8, addend: 0x0, symName: __ZNSt3__1miB8ue170006IPNS_4pairINS1_IdNS1_IiiEEEEiEES5_EEDTmicldtfp_4baseEcldtfp0_4baseEERKNS_11__wrap_iterIT_EERKNS7_IT0_EE, symObjAddr: 0x7710, symBinAddr: 0x100007EC0, symSize: 0x40 }
  - { offsetInCU: 0xB9A2, offset: 0xB9A2, size: 0x8, addend: 0x0, symName: __ZNSt3__19__sift_upB8ue170006INS_17_ClassicAlgPolicyER10CompareSumNS_11__wrap_iterIPNS_4pairINS5_IdNS5_IiiEEEEiEEEEEEvT1_SB_OT0_NS_15iterator_traitsISB_E15difference_typeE, symObjAddr: 0x7750, symBinAddr: 0x100007F00, symSize: 0x160 }
  - { offsetInCU: 0xBA76, offset: 0xBA76, size: 0x8, addend: 0x0, symName: __ZNSt3__18pop_heapB8ue170006INS_11__wrap_iterIPNS_4pairINS2_IdNS2_IiiEEEEiEEEE10CompareSumEEvT_S9_T0_, symObjAddr: 0x7A90, symBinAddr: 0x100008240, symSize: 0x50 }
  - { offsetInCU: 0xBADA, offset: 0xBADA, size: 0x8, addend: 0x0, symName: __ZNSt3__110__pop_heapB8ue170006INS_17_ClassicAlgPolicyE10CompareSumNS_11__wrap_iterIPNS_4pairINS4_IdNS4_IiiEEEEiEEEEEEvT1_SA_RT0_NS_15iterator_traitsISA_E15difference_typeE, symObjAddr: 0x7B10, symBinAddr: 0x1000082C0, symSize: 0x130 }
  - { offsetInCU: 0xBB8B, offset: 0xBB8B, size: 0x8, addend: 0x0, symName: __ZNSt3__1eqB8ue170006IPNS_4pairINS1_IdNS1_IiiEEEEiEEEEbRKNS_11__wrap_iterIT_EESA_, symObjAddr: 0x7D70, symBinAddr: 0x100008520, symSize: 0x40 }
  - { offsetInCU: 0xBF47, offset: 0xBF47, size: 0x8, addend: 0x0, symName: __ZSt28__throw_bad_array_new_lengthB8ue170006v, symObjAddr: 0x4720, symBinAddr: 0x100004ED0, symSize: 0x40 }
  - { offsetInCU: 0xC6F8, offset: 0xC6F8, size: 0x8, addend: 0x0, symName: __ZNSt3__16vectorINS_4pairIdNS1_IiiEEEENS_9allocatorIS3_EEE26__swap_out_circular_bufferERNS_14__split_bufferIS3_RS5_EE, symObjAddr: 0x4050, symBinAddr: 0x100004800, symSize: 0x120 }
  - { offsetInCU: 0xC789, offset: 0xC789, size: 0x8, addend: 0x0, symName: __ZNSt3__16vectorINS_4pairINS1_IdNS1_IiiEEEEiEENS_9allocatorIS4_EEE26__swap_out_circular_bufferERNS_14__split_bufferIS4_RS6_EE, symObjAddr: 0x6720, symBinAddr: 0x100006ED0, symSize: 0x120 }
  - { offsetInCU: 0xEB6B, offset: 0xEB6B, size: 0x8, addend: 0x0, symName: __Z3gcdii, symObjAddr: 0x0, symBinAddr: 0x1000007B0, symSize: 0x50 }
  - { offsetInCU: 0xEBC1, offset: 0xEBC1, size: 0x8, addend: 0x0, symName: __Z20count_decimal_placesd, symObjAddr: 0x50, symBinAddr: 0x100000800, symSize: 0x80 }
  - { offsetInCU: 0xEC0A, offset: 0xEC0A, size: 0x8, addend: 0x0, symName: __ZNKSt3__112basic_stringIcNS_11char_traitsIcEENS_9allocatorIcEEE4sizeB8ue170006Ev, symObjAddr: 0xD0, symBinAddr: 0x100000880, symSize: 0x50 }
  - { offsetInCU: 0xEC2E, offset: 0xEC2E, size: 0x8, addend: 0x0, symName: __Z12format_deltadi, symObjAddr: 0x120, symBinAddr: 0x1000008D0, symSize: 0x2C0 }
  - { offsetInCU: 0xECB0, offset: 0xECB0, size: 0x8, addend: 0x0, symName: __ZNSt3__112basic_stringIcNS_11char_traitsIcEENS_9allocatorIcEEEC1B8ue170006ILi0EEEPKc, symObjAddr: 0x3E0, symBinAddr: 0x100000B90, symSize: 0x30 }
  - { offsetInCU: 0xEDD6, offset: 0xEDD6, size: 0x8, addend: 0x0, symName: __ZNSt3__118basic_stringstreamIcNS_11char_traitsIcEENS_9allocatorIcEEEC1B8ue170006Ev, symObjAddr: 0x410, symBinAddr: 0x100000BC0, symSize: 0x100 }
  - { offsetInCU: 0xEDFF, offset: 0xEDFF, size: 0x8, addend: 0x0, symName: __ZNSt3__113basic_ostreamIcNS_11char_traitsIcEEElsB8ue170006EPFRNS_8ios_baseES5_E, symObjAddr: 0x550, symBinAddr: 0x100000D00, symSize: 0x30 }
  - { offsetInCU: 0xEE32, offset: 0xEE32, size: 0x8, addend: 0x0, symName: __ZNKSt3__118basic_stringstreamIcNS_11char_traitsIcEENS_9allocatorIcEEE3strB8ue170006Ev, symObjAddr: 0x5D0, symBinAddr: 0x100000D80, symSize: 0x30 }
  - { offsetInCU: 0xEE56, offset: 0xEE56, size: 0x8, addend: 0x0, symName: __ZNKSt3__112basic_stringIcNS_11char_traitsIcEENS_9allocatorIcEEE17find_first_not_ofB8ue170006Ecm, symObjAddr: 0x600, symBinAddr: 0x100000DB0, symSize: 0x50 }
  - { offsetInCU: 0xEE9B, offset: 0xEE9B, size: 0x8, addend: 0x0, symName: __ZNSt3__112basic_stringIcNS_11char_traitsIcEENS_9allocatorIcEEEixB8ue170006Em, symObjAddr: 0x650, symBinAddr: 0x100000E00, symSize: 0x30 }
  - { offsetInCU: 0xEECE, offset: 0xEECE, size: 0x8, addend: 0x0, symName: __ZNKSt3__112basic_stringIcNS_11char_traitsIcEENS_9allocatorIcEEE16find_last_not_ofB8ue170006Ecm, symObjAddr: 0x680, symBinAddr: 0x100000E30, symSize: 0x50 }
  - { offsetInCU: 0xEF13, offset: 0xEF13, size: 0x8, addend: 0x0, symName: __ZNSt3__112basic_stringIcNS_11char_traitsIcEENS_9allocatorIcEEE4backB8ue170006Ev, symObjAddr: 0x6D0, symBinAddr: 0x100000E80, symSize: 0x40 }
  - { offsetInCU: 0xEF37, offset: 0xEF37, size: 0x8, addend: 0x0, symName: __ZNSt3__112basic_stringIcNS_11char_traitsIcEENS_9allocatorIcEEE8pop_backB8ue170006Ev, symObjAddr: 0x710, symBinAddr: 0x100000EC0, symSize: 0x30 }
  - { offsetInCU: 0xEF63, offset: 0xEF63, size: 0x8, addend: 0x0, symName: __ZNSt3__118basic_stringstreamIcNS_11char_traitsIcEENS_9allocatorIcEEED1Ev, symObjAddr: 0x740, symBinAddr: 0x100000EF0, symSize: 0x40 }
  - { offsetInCU: 0xEF8E, offset: 0xEF8E, size: 0x8, addend: 0x0, symName: __Z13print_resultsRKNSt3__16vectorINS_4pairIdNS1_IiiEEEENS_9allocatorIS3_EEEEd, symObjAddr: 0x780, symBinAddr: 0x100000F30, symSize: 0x340 }
  - { offsetInCU: 0xF058, offset: 0xF058, size: 0x8, addend: 0x0, symName: __ZNSt3__113basic_ostreamIcNS_11char_traitsIcEEElsB8ue170006EPFRS3_S4_E, symObjAddr: 0xB60, symBinAddr: 0x100001310, symSize: 0x20 }
  - { offsetInCU: 0xF08A, offset: 0xF08A, size: 0x8, addend: 0x0, symName: __ZNKSt3__16vectorINS_4pairIdNS1_IiiEEEENS_9allocatorIS3_EEE5beginB8ue170006Ev, symObjAddr: 0xBD0, symBinAddr: 0x100001380, symSize: 0x30 }
  - { offsetInCU: 0xF0B0, offset: 0xF0B0, size: 0x8, addend: 0x0, symName: __ZNKSt3__16vectorINS_4pairIdNS1_IiiEEEENS_9allocatorIS3_EEE3endB8ue170006Ev, symObjAddr: 0xC00, symBinAddr: 0x1000013B0, symSize: 0x30 }
  - { offsetInCU: 0xF0D7, offset: 0xF0D7, size: 0x8, addend: 0x0, symName: __ZNKSt3__111__wrap_iterIPKNS_4pairIdNS1_IiiEEEEEdeB8ue170006Ev, symObjAddr: 0xC60, symBinAddr: 0x100001410, symSize: 0x20 }
  - { offsetInCU: 0xF0FC, offset: 0xF0FC, size: 0x8, addend: 0x0, symName: __ZNSt3__111__wrap_iterIPKNS_4pairIdNS1_IiiEEEEEppB8ue170006Ev, symObjAddr: 0xCD0, symBinAddr: 0x100001480, symSize: 0x20 }
  - { offsetInCU: 0xF120, offset: 0xF120, size: 0x8, addend: 0x0, symName: __Z21search_best_fractionsdddbi, symObjAddr: 0xCF0, symBinAddr: 0x1000014A0, symSize: 0x900 }
  - { offsetInCU: 0xF389, offset: 0xF389, size: 0x8, addend: 0x0, symName: __ZNSt3__114priority_queueINS_4pairIdNS1_IiiEEEENS_6vectorIS3_NS_9allocatorIS3_EEEE12CompareDeltaEC1B8ue170006Ev, symObjAddr: 0x15F0, symBinAddr: 0x100001DA0, symSize: 0x20 }
  - { offsetInCU: 0xF3B1, offset: 0xF3B1, size: 0x8, addend: 0x0, symName: __Z3absB8ue170006d, symObjAddr: 0x1610, symBinAddr: 0x100001DC0, symSize: 0x20 }
  - { offsetInCU: 0xF3DD, offset: 0xF3DD, size: 0x8, addend: 0x0, symName: __ZNSt3__114priority_queueINS_4pairIdNS1_IiiEEEENS_6vectorIS3_NS_9allocatorIS3_EEEE12CompareDeltaE4pushEOS3_, symObjAddr: 0x1630, symBinAddr: 0x100001DE0, symSize: 0x50 }
  - { offsetInCU: 0xF413, offset: 0xF413, size: 0x8, addend: 0x0, symName: __ZNSt3__14pairIiiEC1B8ue170006IRiS3_LPv0EEEOT_OT0_, symObjAddr: 0x1680, symBinAddr: 0x100001E30, symSize: 0x30 }
  - { offsetInCU: 0xF47A, offset: 0xF47A, size: 0x8, addend: 0x0, symName: __ZNSt3__14pairIdNS0_IiiEEEC1B8ue170006ILb1ELPv0EEERKdRKS1_, symObjAddr: 0x16B0, symBinAddr: 0x100001E60, symSize: 0x30 }
  - { offsetInCU: 0xF4CF, offset: 0xF4CF, size: 0x8, addend: 0x0, symName: __ZNKSt3__114priority_queueINS_4pairIdNS1_IiiEEEENS_6vectorIS3_NS_9allocatorIS3_EEEE12CompareDeltaE4sizeB8ue170006Ev, symObjAddr: 0x16E0, symBinAddr: 0x100001E90, symSize: 0x20 }
  - { offsetInCU: 0xF4F3, offset: 0xF4F3, size: 0x8, addend: 0x0, symName: __ZNSt3__114priority_queueINS_4pairIdNS1_IiiEEEENS_6vectorIS3_NS_9allocatorIS3_EEEE12CompareDeltaE3popEv, symObjAddr: 0x1700, symBinAddr: 0x100001EB0, symSize: 0x50 }
  - { offsetInCU: 0xF51A, offset: 0xF51A, size: 0x8, addend: 0x0, symName: __ZNSt3__16vectorINS_4pairIdNS1_IiiEEEENS_9allocatorIS3_EEEC1B8ue170006Ev, symObjAddr: 0x1750, symBinAddr: 0x100001F00, symSize: 0x20 }
  - { offsetInCU: 0xF543, offset: 0xF543, size: 0x8, addend: 0x0, symName: __ZNKSt3__114priority_queueINS_4pairIdNS1_IiiEEEENS_6vectorIS3_NS_9allocatorIS3_EEEE12CompareDeltaE5emptyB8ue170006Ev, symObjAddr: 0x1770, symBinAddr: 0x100001F20, symSize: 0x20 }
  - { offsetInCU: 0xF567, offset: 0xF567, size: 0x8, addend: 0x0, symName: __ZNSt3__16vectorINS_4pairIdNS1_IiiEEEENS_9allocatorIS3_EEE9push_backB8ue170006ERKS3_, symObjAddr: 0x1790, symBinAddr: 0x100001F40, symSize: 0x60 }
  - { offsetInCU: 0xF59D, offset: 0xF59D, size: 0x8, addend: 0x0, symName: __ZNKSt3__114priority_queueINS_4pairIdNS1_IiiEEEENS_6vectorIS3_NS_9allocatorIS3_EEEE12CompareDeltaE3topB8ue170006Ev, symObjAddr: 0x17F0, symBinAddr: 0x100001FA0, symSize: 0x20 }
  - { offsetInCU: 0xF5C1, offset: 0xF5C1, size: 0x8, addend: 0x0, symName: __ZNSt3__16vectorINS_4pairIdNS1_IiiEEEENS_9allocatorIS3_EEE5beginB8ue170006Ev, symObjAddr: 0x1850, symBinAddr: 0x100002000, symSize: 0x30 }
  - { offsetInCU: 0xF5E7, offset: 0xF5E7, size: 0x8, addend: 0x0, symName: __ZNSt3__16vectorINS_4pairIdNS1_IiiEEEENS_9allocatorIS3_EEE3endB8ue170006Ev, symObjAddr: 0x1880, symBinAddr: 0x100002030, symSize: 0x30 }
  - { offsetInCU: 0xF60E, offset: 0xF60E, size: 0x8, addend: 0x0, symName: __ZNSt3__16vectorINS_4pairIdNS1_IiiEEEENS_9allocatorIS3_EEED1B8ue170006Ev, symObjAddr: 0x18B0, symBinAddr: 0x100002060, symSize: 0x20 }
  - { offsetInCU: 0xF637, offset: 0xF637, size: 0x8, addend: 0x0, symName: __ZNSt3__114priority_queueINS_4pairIdNS1_IiiEEEENS_6vectorIS3_NS_9allocatorIS3_EEEE12CompareDeltaED1Ev, symObjAddr: 0x18D0, symBinAddr: 0x100002080, symSize: 0x20 }
  - { offsetInCU: 0xF6D7, offset: 0xF6D7, size: 0x8, addend: 0x0, symName: __ZNSt3__114priority_queueINS_4pairINS1_IdNS1_IiiEEEEiEENS_6vectorIS4_NS_9allocatorIS4_EEEE10CompareSumEC1B8ue170006Ev, symObjAddr: 0x18F0, symBinAddr: 0x1000020A0, symSize: 0x20 }
  - { offsetInCU: 0xF6FF, offset: 0xF6FF, size: 0x8, addend: 0x0, symName: __ZNSt3__114priority_queueINS_4pairINS1_IdNS1_IiiEEEEiEENS_6vectorIS4_NS_9allocatorIS4_EEEE10CompareSumE4pushEOS4_, symObjAddr: 0x1910, symBinAddr: 0x1000020C0, symSize: 0x50 }
  - { offsetInCU: 0xF73A, offset: 0xF73A, size: 0x8, addend: 0x0, symName: __ZNSt3__14pairINS0_IdNS0_IiiEEEEiEC1B8ue170006ILb1ELPv0EEERKS2_RKi, symObjAddr: 0x1960, symBinAddr: 0x100002110, symSize: 0x30 }
  - { offsetInCU: 0xF78F, offset: 0xF78F, size: 0x8, addend: 0x0, symName: __ZNKSt3__114priority_queueINS_4pairINS1_IdNS1_IiiEEEEiEENS_6vectorIS4_NS_9allocatorIS4_EEEE10CompareSumE4sizeB8ue170006Ev, symObjAddr: 0x1990, symBinAddr: 0x100002140, symSize: 0x20 }
  - { offsetInCU: 0xF7B3, offset: 0xF7B3, size: 0x8, addend: 0x0, symName: __ZNSt3__114priority_queueINS_4pairINS1_IdNS1_IiiEEEEiEENS_6vectorIS4_NS_9allocatorIS4_EEEE10CompareSumE3popEv, symObjAddr: 0x19B0, symBinAddr: 0x100002160, symSize: 0x50 }
  - { offsetInCU: 0xF7DA, offset: 0xF7DA, size: 0x8, addend: 0x0, symName: __ZNKSt3__114priority_queueINS_4pairINS1_IdNS1_IiiEEEEiEENS_6vectorIS4_NS_9allocatorIS4_EEEE10CompareSumE5emptyB8ue170006Ev, symObjAddr: 0x1A00, symBinAddr: 0x1000021B0, symSize: 0x20 }
  - { offsetInCU: 0xF7FF, offset: 0xF7FF, size: 0x8, addend: 0x0, symName: __ZNKSt3__114priority_queueINS_4pairINS1_IdNS1_IiiEEEEiEENS_6vectorIS4_NS_9allocatorIS4_EEEE10CompareSumE3topB8ue170006Ev, symObjAddr: 0x1A20, symBinAddr: 0x1000021D0, symSize: 0x20 }
  - { offsetInCU: 0xF824, offset: 0xF824, size: 0x8, addend: 0x0, symName: __ZNSt3__114priority_queueINS_4pairINS1_IdNS1_IiiEEEEiEENS_6vectorIS4_NS_9allocatorIS4_EEEE10CompareSumED1Ev, symObjAddr: 0x1A40, symBinAddr: 0x1000021F0, symSize: 0x20 }
  - { offsetInCU: 0xF850, offset: 0xF850, size: 0x8, addend: 0x0, symName: _main, symObjAddr: 0x1A60, symBinAddr: 0x100002210, symSize: 0x200 }
  - { offsetInCU: 0xF8E9, offset: 0xF8E9, size: 0x8, addend: 0x0, symName: __ZNSt3__18ios_base4setfB8ue170006Ejj, symObjAddr: 0x1C60, symBinAddr: 0x100002410, symSize: 0x50 }
  - { offsetInCU: 0xF93C, offset: 0xF93C, size: 0x8, addend: 0x0, symName: __ZNSt3__18ios_base6unsetfB8ue170006Ej, symObjAddr: 0x1CB0, symBinAddr: 0x100002460, symSize: 0x20 }
  - { offsetInCU: 0xF972, offset: 0xF972, size: 0x8, addend: 0x0, symName: __ZNSt3__18__iom_t5C1B8ue170006Ei, symObjAddr: 0x1CD0, symBinAddr: 0x100002480, symSize: 0x30 }
  - { offsetInCU: 0xF9A9, offset: 0xF9A9, size: 0x8, addend: 0x0, symName: __ZNSt3__18__iom_t5C2B8ue170006Ei, symObjAddr: 0x1D00, symBinAddr: 0x1000024B0, symSize: 0x20 }
  - { offsetInCU: 0xF9E0, offset: 0xF9E0, size: 0x8, addend: 0x0, symName: __ZNSt3__118basic_stringstreamIcNS_11char_traitsIcEENS_9allocatorIcEEED2Ev, symObjAddr: 0x1D20, symBinAddr: 0x1000024D0, symSize: 0x60 }
  - { offsetInCU: 0xFA18, offset: 0xFA18, size: 0x8, addend: 0x0, symName: __ZThn16_NSt3__118basic_stringstreamIcNS_11char_traitsIcEENS_9allocatorIcEEED1Ev, symObjAddr: 0x1D80, symBinAddr: 0x100002530, symSize: 0x20 }
  - { offsetInCU: 0xFA2F, offset: 0xFA2F, size: 0x8, addend: 0x0, symName: __ZTv0_n24_NSt3__118basic_stringstreamIcNS_11char_traitsIcEENS_9allocatorIcEEED1Ev, symObjAddr: 0x1DA0, symBinAddr: 0x100002550, symSize: 0x20 }
  - { offsetInCU: 0xFA4B, offset: 0xFA4B, size: 0x8, addend: 0x0, symName: __ZNSt3__115basic_stringbufIcNS_11char_traitsIcEENS_9allocatorIcEEED1Ev, symObjAddr: 0x1DC0, symBinAddr: 0x100002570, symSize: 0x20 }
  - { offsetInCU: 0xFA77, offset: 0xFA77, size: 0x8, addend: 0x0, symName: __ZNSt3__115basic_stringbufIcNS_11char_traitsIcEENS_9allocatorIcEEED2Ev, symObjAddr: 0x1DE0, symBinAddr: 0x100002590, symSize: 0x40 }
  - { offsetInCU: 0xFAA3, offset: 0xFAA3, size: 0x8, addend: 0x0, symName: __ZNSt3__18__iom_t6C1B8ue170006Ei, symObjAddr: 0x1E20, symBinAddr: 0x1000025D0, symSize: 0x30 }
  - { offsetInCU: 0xFADA, offset: 0xFADA, size: 0x8, addend: 0x0, symName: __ZNSt3__18__iom_t6C2B8ue170006Ei, symObjAddr: 0x1E50, symBinAddr: 0x100002600, symSize: 0x20 }
  - { offsetInCU: 0xFB11, offset: 0xFB11, size: 0x8, addend: 0x0, symName: __ZNKSt3__111__wrap_iterIPKNS_4pairIdNS1_IiiEEEEE4baseB8ue170006Ev, symObjAddr: 0x1EB0, symBinAddr: 0x100002660, symSize: 0x20 }
  - { offsetInCU: 0xFB36, offset: 0xFB36, size: 0x8, addend: 0x0, symName: __ZNSt3__14pairIiiEC2B8ue170006IRiS3_LPv0EEEOT_OT0_, symObjAddr: 0x1ED0, symBinAddr: 0x100002680, symSize: 0x30 }
  - { offsetInCU: 0xFB93, offset: 0xFB93, size: 0x8, addend: 0x0, symName: __ZNSt3__14pairIdNS0_IiiEEEC2B8ue170006ILb1ELPv0EEERKdRKS1_, symObjAddr: 0x1F00, symBinAddr: 0x1000026B0, symSize: 0x30 }
  - { offsetInCU: 0xFBE8, offset: 0xFBE8, size: 0x8, addend: 0x0, symName: __ZNSt3__114priority_queueINS_4pairIdNS1_IiiEEEENS_6vectorIS3_NS_9allocatorIS3_EEEE12CompareDeltaED2Ev, symObjAddr: 0x1F30, symBinAddr: 0x1000026E0, symSize: 0x20 }
  - { offsetInCU: 0xFC14, offset: 0xFC14, size: 0x8, addend: 0x0, symName: __ZNSt3__14pairINS0_IdNS0_IiiEEEEiEC2B8ue170006ILb1ELPv0EEERKS2_RKi, symObjAddr: 0x1F50, symBinAddr: 0x100002700, symSize: 0x40 }
  - { offsetInCU: 0xFC69, offset: 0xFC69, size: 0x8, addend: 0x0, symName: __ZNSt3__114priority_queueINS_4pairINS1_IdNS1_IiiEEEEiEENS_6vectorIS4_NS_9allocatorIS4_EEEE10CompareSumED2Ev, symObjAddr: 0x1F90, symBinAddr: 0x100002740, symSize: 0x20 }
  - { offsetInCU: 0xFC95, offset: 0xFC95, size: 0x8, addend: 0x0, symName: __ZNSt3__16vectorINS_4pairINS1_IdNS1_IiiEEEEiEENS_9allocatorIS4_EEED1B8ue170006Ev, symObjAddr: 0x1FB0, symBinAddr: 0x100002760, symSize: 0x20 }
  - { offsetInCU: 0xFCBE, offset: 0xFCBE, size: 0x8, addend: 0x0, symName: __ZNSt3__16vectorINS_4pairINS1_IdNS1_IiiEEEEiEENS_9allocatorIS4_EEED2B8ue170006Ev, symObjAddr: 0x1FD0, symBinAddr: 0x100002780, symSize: 0x40 }
  - { offsetInCU: 0xFCE7, offset: 0xFCE7, size: 0x8, addend: 0x0, symName: __ZNSt3__16vectorINS_4pairINS1_IdNS1_IiiEEEEiEENS_9allocatorIS4_EEE16__destroy_vectorC1B8ue170006ERS7_, symObjAddr: 0x2010, symBinAddr: 0x1000027C0, symSize: 0x30 }
  - { offsetInCU: 0xFD1F, offset: 0xFD1F, size: 0x8, addend: 0x0, symName: __ZNSt3__16vectorINS_4pairINS1_IdNS1_IiiEEEEiEENS_9allocatorIS4_EEE16__destroy_vectorclB8ue170006Ev, symObjAddr: 0x2050, symBinAddr: 0x100002800, symSize: 0x80 }
  - { offsetInCU: 0xFD44, offset: 0xFD44, size: 0x8, addend: 0x0, symName: __ZNSt3__16vectorINS_4pairINS1_IdNS1_IiiEEEEiEENS_9allocatorIS4_EEE16__destroy_vectorC2B8ue170006ERS7_, symObjAddr: 0x20D0, symBinAddr: 0x100002880, symSize: 0x20 }
  - { offsetInCU: 0xFD7C, offset: 0xFD7C, size: 0x8, addend: 0x0, symName: __ZNSt3__16vectorINS_4pairINS1_IdNS1_IiiEEEEiEENS_9allocatorIS4_EEE7__clearB8ue170006Ev, symObjAddr: 0x20F0, symBinAddr: 0x1000028A0, symSize: 0x20 }
  - { offsetInCU: 0xFDA1, offset: 0xFDA1, size: 0x8, addend: 0x0, symName: __ZNKSt3__16vectorINS_4pairINS1_IdNS1_IiiEEEEiEENS_9allocatorIS4_EEE17__annotate_deleteB8ue170006Ev, symObjAddr: 0x2110, symBinAddr: 0x1000028C0, symSize: 0xB0 }
  - { offsetInCU: 0xFDC6, offset: 0xFDC6, size: 0x8, addend: 0x0, symName: __ZNSt3__116allocator_traitsINS_9allocatorINS_4pairINS2_IdNS2_IiiEEEEiEEEEE10deallocateB8ue170006ERS6_PS5_m, symObjAddr: 0x21C0, symBinAddr: 0x100002970, symSize: 0x30 }
  - { offsetInCU: 0xFE08, offset: 0xFE08, size: 0x8, addend: 0x0, symName: __ZNSt3__16vectorINS_4pairINS1_IdNS1_IiiEEEEiEENS_9allocatorIS4_EEE7__allocB8ue170006Ev, symObjAddr: 0x21F0, symBinAddr: 0x1000029A0, symSize: 0x20 }
  - { offsetInCU: 0xFE2D, offset: 0xFE2D, size: 0x8, addend: 0x0, symName: __ZNKSt3__16vectorINS_4pairINS1_IdNS1_IiiEEEEiEENS_9allocatorIS4_EEE8capacityB8ue170006Ev, symObjAddr: 0x2210, symBinAddr: 0x1000029C0, symSize: 0x40 }
  - { offsetInCU: 0xFE52, offset: 0xFE52, size: 0x8, addend: 0x0, symName: __ZNSt3__16vectorINS_4pairINS1_IdNS1_IiiEEEEiEENS_9allocatorIS4_EEE22__base_destruct_at_endB8ue170006EPS4_, symObjAddr: 0x2250, symBinAddr: 0x100002A00, symSize: 0x80 }
  - { offsetInCU: 0xFE95, offset: 0xFE95, size: 0x8, addend: 0x0, symName: __ZNSt3__116allocator_traitsINS_9allocatorINS_4pairINS2_IdNS2_IiiEEEEiEEEEE7destroyB8ue170006IS5_vEEvRS6_PT_, symObjAddr: 0x22D0, symBinAddr: 0x100002A80, symSize: 0x30 }
  - { offsetInCU: 0xFED2, offset: 0xFED2, size: 0x8, addend: 0x0, symName: __ZNSt3__19allocatorINS_4pairINS1_IdNS1_IiiEEEEiEEE7destroyB8ue170006EPS4_, symObjAddr: 0x2310, symBinAddr: 0x100002AC0, symSize: 0x10 }
  - { offsetInCU: 0xFF05, offset: 0xFF05, size: 0x8, addend: 0x0, symName: __ZNKSt3__16vectorINS_4pairINS1_IdNS1_IiiEEEEiEENS_9allocatorIS4_EEE31__annotate_contiguous_containerB8ue170006EPKvS9_S9_S9_, symObjAddr: 0x2320, symBinAddr: 0x100002AD0, symSize: 0x20 }
  - { offsetInCU: 0xFF5A, offset: 0xFF5A, size: 0x8, addend: 0x0, symName: __ZNKSt3__16vectorINS_4pairINS1_IdNS1_IiiEEEEiEENS_9allocatorIS4_EEE4dataB8ue170006Ev, symObjAddr: 0x2340, symBinAddr: 0x100002AF0, symSize: 0x20 }
  - { offsetInCU: 0xFF7F, offset: 0xFF7F, size: 0x8, addend: 0x0, symName: __ZNKSt3__16vectorINS_4pairINS1_IdNS1_IiiEEEEiEENS_9allocatorIS4_EEE4sizeB8ue170006Ev, symObjAddr: 0x2360, symBinAddr: 0x100002B10, symSize: 0x30 }
  - { offsetInCU: 0xFFA4, offset: 0xFFA4, size: 0x8, addend: 0x0, symName: __ZNSt3__19allocatorINS_4pairINS1_IdNS1_IiiEEEEiEEE10deallocateB8ue170006EPS4_m, symObjAddr: 0x2390, symBinAddr: 0x100002B40, symSize: 0x50 }
  - { offsetInCU: 0xFFE5, offset: 0xFFE5, size: 0x8, addend: 0x0, symName: __ZNSt3__117__compressed_pairIPNS_4pairINS1_IdNS1_IiiEEEEiEENS_9allocatorIS4_EEE6secondB8ue170006Ev, symObjAddr: 0x2450, symBinAddr: 0x100002C00, symSize: 0x20 }
  - { offsetInCU: 0x1000A, offset: 0x1000A, size: 0x8, addend: 0x0, symName: __ZNSt3__122__compressed_pair_elemINS_9allocatorINS_4pairINS2_IdNS2_IiiEEEEiEEEELi1ELb1EE5__getB8ue170006Ev, symObjAddr: 0x2470, symBinAddr: 0x100002C20, symSize: 0x10 }
  - { offsetInCU: 0x1002F, offset: 0x1002F, size: 0x8, addend: 0x0, symName: __ZNKSt3__16vectorINS_4pairINS1_IdNS1_IiiEEEEiEENS_9allocatorIS4_EEE9__end_capB8ue170006Ev, symObjAddr: 0x2480, symBinAddr: 0x100002C30, symSize: 0x20 }
  - { offsetInCU: 0x10054, offset: 0x10054, size: 0x8, addend: 0x0, symName: __ZNKSt3__117__compressed_pairIPNS_4pairINS1_IdNS1_IiiEEEEiEENS_9allocatorIS4_EEE5firstB8ue170006Ev, symObjAddr: 0x24A0, symBinAddr: 0x100002C50, symSize: 0x20 }
  - { offsetInCU: 0x10079, offset: 0x10079, size: 0x8, addend: 0x0, symName: __ZNKSt3__122__compressed_pair_elemIPNS_4pairINS1_IdNS1_IiiEEEEiEELi0ELb0EE5__getB8ue170006Ev, symObjAddr: 0x24C0, symBinAddr: 0x100002C70, symSize: 0x10 }
  - { offsetInCU: 0x1009E, offset: 0x1009E, size: 0x8, addend: 0x0, symName: __ZNKSt3__112basic_stringIcNS_11char_traitsIcEENS_9allocatorIcEEE9__is_longB8ue170006Ev, symObjAddr: 0x24D0, symBinAddr: 0x100002C80, symSize: 0x30 }
  - { offsetInCU: 0x100C3, offset: 0x100C3, size: 0x8, addend: 0x0, symName: __ZNKSt3__112basic_stringIcNS_11char_traitsIcEENS_9allocatorIcEEE15__get_long_sizeB8ue170006Ev, symObjAddr: 0x2500, symBinAddr: 0x100002CB0, symSize: 0x20 }
  - { offsetInCU: 0x100E8, offset: 0x100E8, size: 0x8, addend: 0x0, symName: __ZNKSt3__112basic_stringIcNS_11char_traitsIcEENS_9allocatorIcEEE16__get_short_sizeB8ue170006Ev, symObjAddr: 0x2520, symBinAddr: 0x100002CD0, symSize: 0x30 }
  - { offsetInCU: 0x1010D, offset: 0x1010D, size: 0x8, addend: 0x0, symName: __ZNKSt3__117__compressed_pairINS_12basic_stringIcNS_11char_traitsIcEENS_9allocatorIcEEE5__repES5_E5firstB8ue170006Ev, symObjAddr: 0x2550, symBinAddr: 0x100002D00, symSize: 0x20 }
  - { offsetInCU: 0x10132, offset: 0x10132, size: 0x8, addend: 0x0, symName: __ZNKSt3__122__compressed_pair_elemINS_12basic_stringIcNS_11char_traitsIcEENS_9allocatorIcEEE5__repELi0ELb0EE5__getB8ue170006Ev, symObjAddr: 0x2570, symBinAddr: 0x100002D20, symSize: 0x10 }
  - { offsetInCU: 0x10157, offset: 0x10157, size: 0x8, addend: 0x0, symName: __ZNSt3__112basic_stringIcNS_11char_traitsIcEENS_9allocatorIcEEEC2B8ue170006ILi0EEEPKc, symObjAddr: 0x2580, symBinAddr: 0x100002D30, symSize: 0x50 }
  - { offsetInCU: 0x1019A, offset: 0x1019A, size: 0x8, addend: 0x0, symName: __ZNSt3__117__compressed_pairINS_12basic_stringIcNS_11char_traitsIcEENS_9allocatorIcEEE5__repES5_EC1B8ue170006INS_18__default_init_tagESA_EEOT_OT0_, symObjAddr: 0x25D0, symBinAddr: 0x100002D80, symSize: 0x30 }
  - { offsetInCU: 0x101F1, offset: 0x101F1, size: 0x8, addend: 0x0, symName: __ZNSt3__111char_traitsIcE6lengthB8ue170006EPKc, symObjAddr: 0x2600, symBinAddr: 0x100002DB0, symSize: 0x30 }
  - { offsetInCU: 0x10214, offset: 0x10214, size: 0x8, addend: 0x0, symName: __ZNSt3__117__compressed_pairINS_12basic_stringIcNS_11char_traitsIcEENS_9allocatorIcEEE5__repES5_EC2B8ue170006INS_18__default_init_tagESA_EEOT_OT0_, symObjAddr: 0x2630, symBinAddr: 0x100002DE0, symSize: 0x30 }
  - { offsetInCU: 0x1026B, offset: 0x1026B, size: 0x8, addend: 0x0, symName: __ZNSt3__122__compressed_pair_elemINS_12basic_stringIcNS_11char_traitsIcEENS_9allocatorIcEEE5__repELi0ELb0EEC2B8ue170006ENS_18__default_init_tagE, symObjAddr: 0x2660, symBinAddr: 0x100002E10, symSize: 0x10 }
  - { offsetInCU: 0x1029E, offset: 0x1029E, size: 0x8, addend: 0x0, symName: __ZNSt3__122__compressed_pair_elemINS_9allocatorIcEELi1ELb1EEC2B8ue170006ENS_18__default_init_tagE, symObjAddr: 0x2670, symBinAddr: 0x100002E20, symSize: 0x20 }
  - { offsetInCU: 0x102D1, offset: 0x102D1, size: 0x8, addend: 0x0, symName: __ZNSt3__19allocatorIcEC2B8ue170006Ev, symObjAddr: 0x2690, symBinAddr: 0x100002E40, symSize: 0x20 }
  - { offsetInCU: 0x102FA, offset: 0x102FA, size: 0x8, addend: 0x0, symName: __ZNSt3__116__non_trivial_ifILb1ENS_9allocatorIcEEEC2B8ue170006Ev, symObjAddr: 0x26B0, symBinAddr: 0x100002E60, symSize: 0x10 }
  - { offsetInCU: 0x10323, offset: 0x10323, size: 0x8, addend: 0x0, symName: __ZNSt3__19basic_iosIcNS_11char_traitsIcEEEC2B8ue170006Ev, symObjAddr: 0x26E0, symBinAddr: 0x100002E90, symSize: 0x40 }
  - { offsetInCU: 0x1034C, offset: 0x1034C, size: 0x8, addend: 0x0, symName: __ZNSt3__114basic_iostreamIcNS_11char_traitsIcEEEC2B8ue170006EPNS_15basic_streambufIcS2_EE, symObjAddr: 0x2720, symBinAddr: 0x100002ED0, symSize: 0xA0 }
  - { offsetInCU: 0x10390, offset: 0x10390, size: 0x8, addend: 0x0, symName: __ZNSt3__115basic_stringbufIcNS_11char_traitsIcEENS_9allocatorIcEEEC1B8ue170006Ej, symObjAddr: 0x27C0, symBinAddr: 0x100002F70, symSize: 0x30 }
  - { offsetInCU: 0x103C8, offset: 0x103C8, size: 0x8, addend: 0x0, symName: __ZNSt3__18ios_baseC2B8ue170006Ev, symObjAddr: 0x27F0, symBinAddr: 0x100002FA0, symSize: 0x20 }
  - { offsetInCU: 0x103F1, offset: 0x103F1, size: 0x8, addend: 0x0, symName: __ZNSt3__113basic_istreamIcNS_11char_traitsIcEEEC2B8ue170006EPNS_15basic_streambufIcS2_EE, symObjAddr: 0x2810, symBinAddr: 0x100002FC0, symSize: 0x50 }
  - { offsetInCU: 0x10434, offset: 0x10434, size: 0x8, addend: 0x0, symName: __ZNSt3__113basic_ostreamIcNS_11char_traitsIcEEEC2B8ue170006Ev, symObjAddr: 0x2860, symBinAddr: 0x100003010, symSize: 0x30 }
  - { offsetInCU: 0x10468, offset: 0x10468, size: 0x8, addend: 0x0, symName: __ZNSt3__19basic_iosIcNS_11char_traitsIcEEE4initB8ue170006EPNS_15basic_streambufIcS2_EE, symObjAddr: 0x2890, symBinAddr: 0x100003040, symSize: 0x50 }
  - { offsetInCU: 0x1049E, offset: 0x1049E, size: 0x8, addend: 0x0, symName: __ZNSt3__111char_traitsIcE3eofB8ue170006Ev, symObjAddr: 0x28E0, symBinAddr: 0x100003090, symSize: 0x10 }
  - { offsetInCU: 0x104B2, offset: 0x104B2, size: 0x8, addend: 0x0, symName: __ZNSt3__115basic_stringbufIcNS_11char_traitsIcEENS_9allocatorIcEEEC2B8ue170006Ej, symObjAddr: 0x28F0, symBinAddr: 0x1000030A0, symSize: 0x50 }
  - { offsetInCU: 0x104EA, offset: 0x104EA, size: 0x8, addend: 0x0, symName: __ZNSt3__112basic_stringIcNS_11char_traitsIcEENS_9allocatorIcEEEC1B8ue170006Ev, symObjAddr: 0x2940, symBinAddr: 0x1000030F0, symSize: 0x20 }
  - { offsetInCU: 0x10513, offset: 0x10513, size: 0x8, addend: 0x0, symName: __ZNSt3__112basic_stringIcNS_11char_traitsIcEENS_9allocatorIcEEEC2B8ue170006Ev, symObjAddr: 0x2960, symBinAddr: 0x100003110, symSize: 0x50 }
  - { offsetInCU: 0x1053C, offset: 0x1053C, size: 0x8, addend: 0x0, symName: __ZNSt3__112basic_stringIcNS_11char_traitsIcEENS_9allocatorIcEEE14__default_initB8ue170006Ev, symObjAddr: 0x29B0, symBinAddr: 0x100003160, symSize: 0x50 }
  - { offsetInCU: 0x10561, offset: 0x10561, size: 0x8, addend: 0x0, symName: __ZNSt3__117__compressed_pairINS_12basic_stringIcNS_11char_traitsIcEENS_9allocatorIcEEE5__repES5_E5firstB8ue170006Ev, symObjAddr: 0x2A00, symBinAddr: 0x1000031B0, symSize: 0x20 }
  - { offsetInCU: 0x10586, offset: 0x10586, size: 0x8, addend: 0x0, symName: __ZNSt3__122__compressed_pair_elemINS_12basic_stringIcNS_11char_traitsIcEENS_9allocatorIcEEE5__repELi0ELb0EE5__getB8ue170006Ev, symObjAddr: 0x2A20, symBinAddr: 0x1000031D0, symSize: 0x10 }
  - { offsetInCU: 0x105AA, offset: 0x105AA, size: 0x8, addend: 0x0, symName: __ZNSt3__18ios_base9precisionB8ue170006El, symObjAddr: 0x2A30, symBinAddr: 0x1000031E0, symSize: 0x30 }
  - { offsetInCU: 0x105EF, offset: 0x105EF, size: 0x8, addend: 0x0, symName: __ZNKSt3__112basic_stringIcNS_11char_traitsIcEENS_9allocatorIcEEE4dataB8ue170006Ev, symObjAddr: 0x2B10, symBinAddr: 0x1000032C0, symSize: 0x30 }
  - { offsetInCU: 0x10614, offset: 0x10614, size: 0x8, addend: 0x0, symName: __ZNSt3__111char_traitsIcE2eqEcc, symObjAddr: 0x2B40, symBinAddr: 0x1000032F0, symSize: 0x30 }
  - { offsetInCU: 0x10645, offset: 0x10645, size: 0x8, addend: 0x0, symName: __ZNKSt3__112basic_stringIcNS_11char_traitsIcEENS_9allocatorIcEEE13__get_pointerB8ue170006Ev, symObjAddr: 0x2B80, symBinAddr: 0x100003330, symSize: 0x50 }
  - { offsetInCU: 0x1066A, offset: 0x1066A, size: 0x8, addend: 0x0, symName: __ZNKSt3__112basic_stringIcNS_11char_traitsIcEENS_9allocatorIcEEE18__get_long_pointerB8ue170006Ev, symObjAddr: 0x2BD0, symBinAddr: 0x100003380, symSize: 0x20 }
  - { offsetInCU: 0x1068F, offset: 0x1068F, size: 0x8, addend: 0x0, symName: __ZNKSt3__112basic_stringIcNS_11char_traitsIcEENS_9allocatorIcEEE19__get_short_pointerB8ue170006Ev, symObjAddr: 0x2BF0, symBinAddr: 0x1000033A0, symSize: 0x30 }
  - { offsetInCU: 0x106B4, offset: 0x106B4, size: 0x8, addend: 0x0, symName: __ZNSt3__114pointer_traitsIPKcE10pointer_toB8ue170006ERS1_, symObjAddr: 0x2C20, symBinAddr: 0x1000033D0, symSize: 0x10 }
  - { offsetInCU: 0x106D7, offset: 0x106D7, size: 0x8, addend: 0x0, symName: __ZNSt3__112basic_stringIcNS_11char_traitsIcEENS_9allocatorIcEEE13__get_pointerB8ue170006Ev, symObjAddr: 0x2C30, symBinAddr: 0x1000033E0, symSize: 0x50 }
  - { offsetInCU: 0x106FC, offset: 0x106FC, size: 0x8, addend: 0x0, symName: __ZNSt3__112basic_stringIcNS_11char_traitsIcEENS_9allocatorIcEEE18__get_long_pointerB8ue170006Ev, symObjAddr: 0x2C80, symBinAddr: 0x100003430, symSize: 0x20 }
  - { offsetInCU: 0x10721, offset: 0x10721, size: 0x8, addend: 0x0, symName: __ZNSt3__112basic_stringIcNS_11char_traitsIcEENS_9allocatorIcEEE19__get_short_pointerB8ue170006Ev, symObjAddr: 0x2CA0, symBinAddr: 0x100003450, symSize: 0x30 }
  - { offsetInCU: 0x10746, offset: 0x10746, size: 0x8, addend: 0x0, symName: __ZNSt3__114pointer_traitsIPcE10pointer_toB8ue170006ERc, symObjAddr: 0x2CD0, symBinAddr: 0x100003480, symSize: 0x10 }
  - { offsetInCU: 0x10769, offset: 0x10769, size: 0x8, addend: 0x0, symName: __ZNSt3__112basic_stringIcNS_11char_traitsIcEENS_9allocatorIcEEE14__erase_to_endB8ue170006Em, symObjAddr: 0x2D90, symBinAddr: 0x100003540, symSize: 0x40 }
  - { offsetInCU: 0x1079D, offset: 0x1079D, size: 0x8, addend: 0x0, symName: __ZNSt3__112basic_stringIcNS_11char_traitsIcEENS_9allocatorIcEEE19__null_terminate_atB8ue170006EPcm, symObjAddr: 0x2DD0, symBinAddr: 0x100003580, symSize: 0x50 }
  - { offsetInCU: 0x107E0, offset: 0x107E0, size: 0x8, addend: 0x0, symName: __ZNSt3__112basic_stringIcNS_11char_traitsIcEENS_9allocatorIcEEE10__set_sizeB8ue170006Em, symObjAddr: 0x2E30, symBinAddr: 0x1000035E0, symSize: 0x50 }
  - { offsetInCU: 0x10814, offset: 0x10814, size: 0x8, addend: 0x0, symName: __ZNSt3__111char_traitsIcE6assignB8ue170006ERcRKc, symObjAddr: 0x2E80, symBinAddr: 0x100003630, symSize: 0x20 }
  - { offsetInCU: 0x10845, offset: 0x10845, size: 0x8, addend: 0x0, symName: __ZNSt3__112basic_stringIcNS_11char_traitsIcEENS_9allocatorIcEEE15__set_long_sizeB8ue170006Em, symObjAddr: 0x2EA0, symBinAddr: 0x100003650, symSize: 0x30 }
  - { offsetInCU: 0x10879, offset: 0x10879, size: 0x8, addend: 0x0, symName: __ZNSt3__112basic_stringIcNS_11char_traitsIcEENS_9allocatorIcEEE16__set_short_sizeB8ue170006Em, symObjAddr: 0x2ED0, symBinAddr: 0x100003680, symSize: 0x50 }
  - { offsetInCU: 0x108AC, offset: 0x108AC, size: 0x8, addend: 0x0, symName: __ZNSt3__18ios_base5widthB8ue170006El, symObjAddr: 0x2F20, symBinAddr: 0x1000036D0, symSize: 0x30 }
  - { offsetInCU: 0x1090F, offset: 0x1090F, size: 0x8, addend: 0x0, symName: __ZNKSt3__113basic_ostreamIcNS_11char_traitsIcEEE6sentrycvbB8ue170006Ev, symObjAddr: 0x3140, symBinAddr: 0x1000038F0, symSize: 0x20 }
  - { offsetInCU: 0x10934, offset: 0x10934, size: 0x8, addend: 0x0, symName: __ZNSt3__119ostreambuf_iteratorIcNS_11char_traitsIcEEEC1B8ue170006ERNS_13basic_ostreamIcS2_EE, symObjAddr: 0x3380, symBinAddr: 0x100003B30, symSize: 0x30 }
  - { offsetInCU: 0x1096A, offset: 0x1096A, size: 0x8, addend: 0x0, symName: __ZNKSt3__18ios_base5flagsB8ue170006Ev, symObjAddr: 0x33B0, symBinAddr: 0x100003B60, symSize: 0x20 }
  - { offsetInCU: 0x10990, offset: 0x10990, size: 0x8, addend: 0x0, symName: __ZNKSt3__19basic_iosIcNS_11char_traitsIcEEE4fillB8ue170006Ev, symObjAddr: 0x33D0, symBinAddr: 0x100003B80, symSize: 0x70 }
  - { offsetInCU: 0x109B7, offset: 0x109B7, size: 0x8, addend: 0x0, symName: __ZNKSt3__119ostreambuf_iteratorIcNS_11char_traitsIcEEE6failedB8ue170006Ev, symObjAddr: 0x3440, symBinAddr: 0x100003BF0, symSize: 0x20 }
  - { offsetInCU: 0x109DC, offset: 0x109DC, size: 0x8, addend: 0x0, symName: __ZNSt3__19basic_iosIcNS_11char_traitsIcEEE8setstateB8ue170006Ej, symObjAddr: 0x3460, symBinAddr: 0x100003C10, symSize: 0x30 }
  - { offsetInCU: 0x10A0F, offset: 0x10A0F, size: 0x8, addend: 0x0, symName: __ZNKSt3__18ios_base5widthB8ue170006Ev, symObjAddr: 0x3490, symBinAddr: 0x100003C40, symSize: 0x20 }
  - { offsetInCU: 0x10A36, offset: 0x10A36, size: 0x8, addend: 0x0, symName: __ZNSt3__115basic_streambufIcNS_11char_traitsIcEEE5sputnB8ue170006EPKcl, symObjAddr: 0x34B0, symBinAddr: 0x100003C60, symSize: 0x30 }
  - { offsetInCU: 0x10A77, offset: 0x10A77, size: 0x8, addend: 0x0, symName: __ZNSt3__112basic_stringIcNS_11char_traitsIcEENS_9allocatorIcEEEC1B8ue170006Emc, symObjAddr: 0x34E0, symBinAddr: 0x100003C90, symSize: 0x30 }
  - { offsetInCU: 0x10ABE, offset: 0x10ABE, size: 0x8, addend: 0x0, symName: __ZNSt3__112basic_stringIcNS_11char_traitsIcEENS_9allocatorIcEEEC2B8ue170006Emc, symObjAddr: 0x3510, symBinAddr: 0x100003CC0, symSize: 0x50 }
  - { offsetInCU: 0x10B05, offset: 0x10B05, size: 0x8, addend: 0x0, symName: __ZNSt3__119ostreambuf_iteratorIcNS_11char_traitsIcEEEC2B8ue170006ERNS_13basic_ostreamIcS2_EE, symObjAddr: 0x3560, symBinAddr: 0x100003D10, symSize: 0x50 }
  - { offsetInCU: 0x10B3B, offset: 0x10B3B, size: 0x8, addend: 0x0, symName: __ZNKSt3__19basic_iosIcNS_11char_traitsIcEEE5rdbufB8ue170006Ev, symObjAddr: 0x35B0, symBinAddr: 0x100003D60, symSize: 0x20 }
  - { offsetInCU: 0x10B62, offset: 0x10B62, size: 0x8, addend: 0x0, symName: __ZNKSt3__18ios_base5rdbufB8ue170006Ev, symObjAddr: 0x35D0, symBinAddr: 0x100003D80, symSize: 0x20 }
  - { offsetInCU: 0x10B87, offset: 0x10B87, size: 0x8, addend: 0x0, symName: __ZNSt3__111char_traitsIcE11eq_int_typeB8ue170006Eii, symObjAddr: 0x35F0, symBinAddr: 0x100003DA0, symSize: 0x20 }
  - { offsetInCU: 0x10BB9, offset: 0x10BB9, size: 0x8, addend: 0x0, symName: __ZNKSt3__19basic_iosIcNS_11char_traitsIcEEE5widenB8ue170006Ec, symObjAddr: 0x3610, symBinAddr: 0x100003DC0, symSize: 0x80 }
  - { offsetInCU: 0x10C26, offset: 0x10C26, size: 0x8, addend: 0x0, symName: __ZNKSt3__15ctypeIcE5widenB8ue170006Ec, symObjAddr: 0x36C0, symBinAddr: 0x100003E70, symSize: 0x30 }
  - { offsetInCU: 0x10C59, offset: 0x10C59, size: 0x8, addend: 0x0, symName: __ZNSt3__18ios_base8setstateB8ue170006Ej, symObjAddr: 0x36F0, symBinAddr: 0x100003EA0, symSize: 0x30 }
  - { offsetInCU: 0x10C8F, offset: 0x10C8F, size: 0x8, addend: 0x0, symName: __ZNKSt3__16vectorINS_4pairIdNS1_IiiEEEENS_9allocatorIS3_EEE11__make_iterB8ue170006EPKS3_, symObjAddr: 0x3720, symBinAddr: 0x100003ED0, symSize: 0x30 }
  - { offsetInCU: 0x10CC3, offset: 0x10CC3, size: 0x8, addend: 0x0, symName: __ZNSt3__111__wrap_iterIPKNS_4pairIdNS1_IiiEEEEEC1B8ue170006ES5_, symObjAddr: 0x3750, symBinAddr: 0x100003F00, symSize: 0x30 }
  - { offsetInCU: 0x10CFA, offset: 0x10CFA, size: 0x8, addend: 0x0, symName: __ZNSt3__111__wrap_iterIPKNS_4pairIdNS1_IiiEEEEEC2B8ue170006ES5_, symObjAddr: 0x3780, symBinAddr: 0x100003F30, symSize: 0x20 }
  - { offsetInCU: 0x10D31, offset: 0x10D31, size: 0x8, addend: 0x0, symName: __ZNSt3__114priority_queueINS_4pairIdNS1_IiiEEEENS_6vectorIS3_NS_9allocatorIS3_EEEE12CompareDeltaEC2B8ue170006Ev, symObjAddr: 0x37A0, symBinAddr: 0x100003F50, symSize: 0x20 }
  - { offsetInCU: 0x10D5A, offset: 0x10D5A, size: 0x8, addend: 0x0, symName: __ZNSt3__16vectorINS_4pairIdNS1_IiiEEEENS_9allocatorIS3_EEED2B8ue170006Ev, symObjAddr: 0x37C0, symBinAddr: 0x100003F70, symSize: 0x40 }
  - { offsetInCU: 0x10D83, offset: 0x10D83, size: 0x8, addend: 0x0, symName: __ZNSt3__16vectorINS_4pairIdNS1_IiiEEEENS_9allocatorIS3_EEE16__destroy_vectorC1B8ue170006ERS6_, symObjAddr: 0x3800, symBinAddr: 0x100003FB0, symSize: 0x30 }
  - { offsetInCU: 0x10DBB, offset: 0x10DBB, size: 0x8, addend: 0x0, symName: __ZNSt3__16vectorINS_4pairIdNS1_IiiEEEENS_9allocatorIS3_EEE16__destroy_vectorclB8ue170006Ev, symObjAddr: 0x3830, symBinAddr: 0x100003FE0, symSize: 0x80 }
  - { offsetInCU: 0x10DE0, offset: 0x10DE0, size: 0x8, addend: 0x0, symName: __ZNSt3__16vectorINS_4pairIdNS1_IiiEEEENS_9allocatorIS3_EEE16__destroy_vectorC2B8ue170006ERS6_, symObjAddr: 0x38B0, symBinAddr: 0x100004060, symSize: 0x20 }
  - { offsetInCU: 0x10E18, offset: 0x10E18, size: 0x8, addend: 0x0, symName: __ZNSt3__16vectorINS_4pairIdNS1_IiiEEEENS_9allocatorIS3_EEE7__clearB8ue170006Ev, symObjAddr: 0x38D0, symBinAddr: 0x100004080, symSize: 0x20 }
  - { offsetInCU: 0x10E3D, offset: 0x10E3D, size: 0x8, addend: 0x0, symName: __ZNKSt3__16vectorINS_4pairIdNS1_IiiEEEENS_9allocatorIS3_EEE17__annotate_deleteB8ue170006Ev, symObjAddr: 0x38F0, symBinAddr: 0x1000040A0, symSize: 0xB0 }
  - { offsetInCU: 0x10E62, offset: 0x10E62, size: 0x8, addend: 0x0, symName: __ZNSt3__116allocator_traitsINS_9allocatorINS_4pairIdNS2_IiiEEEEEEE10deallocateB8ue170006ERS5_PS4_m, symObjAddr: 0x39A0, symBinAddr: 0x100004150, symSize: 0x30 }
  - { offsetInCU: 0x10EA4, offset: 0x10EA4, size: 0x8, addend: 0x0, symName: __ZNSt3__16vectorINS_4pairIdNS1_IiiEEEENS_9allocatorIS3_EEE7__allocB8ue170006Ev, symObjAddr: 0x39D0, symBinAddr: 0x100004180, symSize: 0x20 }
  - { offsetInCU: 0x10EC9, offset: 0x10EC9, size: 0x8, addend: 0x0, symName: __ZNKSt3__16vectorINS_4pairIdNS1_IiiEEEENS_9allocatorIS3_EEE8capacityB8ue170006Ev, symObjAddr: 0x39F0, symBinAddr: 0x1000041A0, symSize: 0x30 }
  - { offsetInCU: 0x10EEE, offset: 0x10EEE, size: 0x8, addend: 0x0, symName: __ZNSt3__16vectorINS_4pairIdNS1_IiiEEEENS_9allocatorIS3_EEE22__base_destruct_at_endB8ue170006EPS3_, symObjAddr: 0x3A20, symBinAddr: 0x1000041D0, symSize: 0x80 }
  - { offsetInCU: 0x10F31, offset: 0x10F31, size: 0x8, addend: 0x0, symName: __ZNSt3__116allocator_traitsINS_9allocatorINS_4pairIdNS2_IiiEEEEEEE7destroyB8ue170006IS4_vEEvRS5_PT_, symObjAddr: 0x3AA0, symBinAddr: 0x100004250, symSize: 0x30 }
  - { offsetInCU: 0x10F6E, offset: 0x10F6E, size: 0x8, addend: 0x0, symName: __ZNSt3__19allocatorINS_4pairIdNS1_IiiEEEEE7destroyB8ue170006EPS3_, symObjAddr: 0x3AE0, symBinAddr: 0x100004290, symSize: 0x10 }
  - { offsetInCU: 0x10FA1, offset: 0x10FA1, size: 0x8, addend: 0x0, symName: __ZNKSt3__16vectorINS_4pairIdNS1_IiiEEEENS_9allocatorIS3_EEE31__annotate_contiguous_containerB8ue170006EPKvS8_S8_S8_, symObjAddr: 0x3AF0, symBinAddr: 0x1000042A0, symSize: 0x20 }
  - { offsetInCU: 0x10FF6, offset: 0x10FF6, size: 0x8, addend: 0x0, symName: __ZNKSt3__16vectorINS_4pairIdNS1_IiiEEEENS_9allocatorIS3_EEE4dataB8ue170006Ev, symObjAddr: 0x3B10, symBinAddr: 0x1000042C0, symSize: 0x20 }
  - { offsetInCU: 0x1101B, offset: 0x1101B, size: 0x8, addend: 0x0, symName: __ZNKSt3__16vectorINS_4pairIdNS1_IiiEEEENS_9allocatorIS3_EEE4sizeB8ue170006Ev, symObjAddr: 0x3B30, symBinAddr: 0x1000042E0, symSize: 0x20 }
  - { offsetInCU: 0x11040, offset: 0x11040, size: 0x8, addend: 0x0, symName: __ZNSt3__19allocatorINS_4pairIdNS1_IiiEEEEE10deallocateB8ue170006EPS3_m, symObjAddr: 0x3B50, symBinAddr: 0x100004300, symSize: 0x40 }
  - { offsetInCU: 0x11081, offset: 0x11081, size: 0x8, addend: 0x0, symName: __ZNSt3__117__compressed_pairIPNS_4pairIdNS1_IiiEEEENS_9allocatorIS3_EEE6secondB8ue170006Ev, symObjAddr: 0x3B90, symBinAddr: 0x100004340, symSize: 0x20 }
  - { offsetInCU: 0x110A6, offset: 0x110A6, size: 0x8, addend: 0x0, symName: __ZNSt3__122__compressed_pair_elemINS_9allocatorINS_4pairIdNS2_IiiEEEEEELi1ELb1EE5__getB8ue170006Ev, symObjAddr: 0x3BB0, symBinAddr: 0x100004360, symSize: 0x10 }
  - { offsetInCU: 0x110CB, offset: 0x110CB, size: 0x8, addend: 0x0, symName: __ZNKSt3__16vectorINS_4pairIdNS1_IiiEEEENS_9allocatorIS3_EEE9__end_capB8ue170006Ev, symObjAddr: 0x3BC0, symBinAddr: 0x100004370, symSize: 0x20 }
  - { offsetInCU: 0x110F0, offset: 0x110F0, size: 0x8, addend: 0x0, symName: __ZNKSt3__117__compressed_pairIPNS_4pairIdNS1_IiiEEEENS_9allocatorIS3_EEE5firstB8ue170006Ev, symObjAddr: 0x3BE0, symBinAddr: 0x100004390, symSize: 0x20 }
  - { offsetInCU: 0x11115, offset: 0x11115, size: 0x8, addend: 0x0, symName: __ZNKSt3__122__compressed_pair_elemIPNS_4pairIdNS1_IiiEEEELi0ELb0EE5__getB8ue170006Ev, symObjAddr: 0x3C00, symBinAddr: 0x1000043B0, symSize: 0x10 }
  - { offsetInCU: 0x11139, offset: 0x11139, size: 0x8, addend: 0x0, symName: __ZNSt3__16vectorINS_4pairIdNS1_IiiEEEENS_9allocatorIS3_EEE9push_backB8ue170006EOS3_, symObjAddr: 0x3C10, symBinAddr: 0x1000043C0, symSize: 0x60 }
  - { offsetInCU: 0x1116F, offset: 0x1116F, size: 0x8, addend: 0x0, symName: __ZNSt3__16vectorINS_4pairIdNS1_IiiEEEENS_9allocatorIS3_EEE9__end_capB8ue170006Ev, symObjAddr: 0x3CB0, symBinAddr: 0x100004460, symSize: 0x20 }
  - { offsetInCU: 0x11194, offset: 0x11194, size: 0x8, addend: 0x0, symName: __ZNSt3__16vectorINS_4pairIdNS1_IiiEEEENS_9allocatorIS3_EEE22__construct_one_at_endB8ue170006IJS3_EEEvDpOT_, symObjAddr: 0x3CD0, symBinAddr: 0x100004480, symSize: 0x90 }
  - { offsetInCU: 0x111E1, offset: 0x111E1, size: 0x8, addend: 0x0, symName: __ZNSt3__16vectorINS_4pairIdNS1_IiiEEEENS_9allocatorIS3_EEE21__push_back_slow_pathIS3_EEvOT_, symObjAddr: 0x3D60, symBinAddr: 0x100004510, symSize: 0xD0 }
  - { offsetInCU: 0x1123E, offset: 0x1123E, size: 0x8, addend: 0x0, symName: __ZNSt3__117__compressed_pairIPNS_4pairIdNS1_IiiEEEENS_9allocatorIS3_EEE5firstB8ue170006Ev, symObjAddr: 0x3E30, symBinAddr: 0x1000045E0, symSize: 0x20 }
  - { offsetInCU: 0x11263, offset: 0x11263, size: 0x8, addend: 0x0, symName: __ZNSt3__122__compressed_pair_elemIPNS_4pairIdNS1_IiiEEEELi0ELb0EE5__getB8ue170006Ev, symObjAddr: 0x3E50, symBinAddr: 0x100004600, symSize: 0x10 }
  - { offsetInCU: 0x112A1, offset: 0x112A1, size: 0x8, addend: 0x0, symName: __ZNSt3__16vectorINS_4pairIdNS1_IiiEEEENS_9allocatorIS3_EEE21_ConstructTransactionC1B8ue170006ERS6_m, symObjAddr: 0x3E60, symBinAddr: 0x100004610, symSize: 0x30 }
  - { offsetInCU: 0x112E8, offset: 0x112E8, size: 0x8, addend: 0x0, symName: __ZNSt3__116allocator_traitsINS_9allocatorINS_4pairIdNS2_IiiEEEEEEE9constructB8ue170006IS4_JS4_EvEEvRS5_PT_DpOT0_, symObjAddr: 0x3E90, symBinAddr: 0x100004640, symSize: 0x30 }
  - { offsetInCU: 0x1133F, offset: 0x1133F, size: 0x8, addend: 0x0, symName: __ZNSt3__16vectorINS_4pairIdNS1_IiiEEEENS_9allocatorIS3_EEE21_ConstructTransactionD1B8ue170006Ev, symObjAddr: 0x3EC0, symBinAddr: 0x100004670, symSize: 0x20 }
  - { offsetInCU: 0x11368, offset: 0x11368, size: 0x8, addend: 0x0, symName: __ZNSt3__16vectorINS_4pairIdNS1_IiiEEEENS_9allocatorIS3_EEE21_ConstructTransactionC2B8ue170006ERS6_m, symObjAddr: 0x3EE0, symBinAddr: 0x100004690, symSize: 0x40 }
  - { offsetInCU: 0x113AF, offset: 0x113AF, size: 0x8, addend: 0x0, symName: __ZNSt3__19allocatorINS_4pairIdNS1_IiiEEEEE9constructB8ue170006IS3_JS3_EEEvPT_DpOT0_, symObjAddr: 0x3F20, symBinAddr: 0x1000046D0, symSize: 0x30 }
  - { offsetInCU: 0x11404, offset: 0x11404, size: 0x8, addend: 0x0, symName: __ZNSt3__16vectorINS_4pairIdNS1_IiiEEEENS_9allocatorIS3_EEE21_ConstructTransactionD2B8ue170006Ev, symObjAddr: 0x3F50, symBinAddr: 0x100004700, symSize: 0x20 }
  - { offsetInCU: 0x1142C, offset: 0x1142C, size: 0x8, addend: 0x0, symName: __ZNKSt3__16vectorINS_4pairIdNS1_IiiEEEENS_9allocatorIS3_EEE11__recommendB8ue170006Em, symObjAddr: 0x3F70, symBinAddr: 0x100004720, symSize: 0xA0 }
  - { offsetInCU: 0x11480, offset: 0x11480, size: 0x8, addend: 0x0, symName: __ZNSt3__114__split_bufferINS_4pairIdNS1_IiiEEEERNS_9allocatorIS3_EEEC1EmmS6_, symObjAddr: 0x4010, symBinAddr: 0x1000047C0, symSize: 0x40 }
  - { offsetInCU: 0x114D5, offset: 0x114D5, size: 0x8, addend: 0x0, symName: __ZNSt3__114__split_bufferINS_4pairIdNS1_IiiEEEERNS_9allocatorIS3_EEED1Ev, symObjAddr: 0x4170, symBinAddr: 0x100004920, symSize: 0x20 }
  - { offsetInCU: 0x114FF, offset: 0x114FF, size: 0x8, addend: 0x0, symName: __ZNKSt3__16vectorINS_4pairIdNS1_IiiEEEENS_9allocatorIS3_EEE8max_sizeEv, symObjAddr: 0x4190, symBinAddr: 0x100004940, symSize: 0x60 }
  - { offsetInCU: 0x11526, offset: 0x11526, size: 0x8, addend: 0x0, symName: __ZNKSt3__16vectorINS_4pairIdNS1_IiiEEEENS_9allocatorIS3_EEE20__throw_length_errorB8ue170006Ev, symObjAddr: 0x41F0, symBinAddr: 0x1000049A0, symSize: 0x20 }
  - { offsetInCU: 0x11555, offset: 0x11555, size: 0x8, addend: 0x0, symName: __ZNSt3__116allocator_traitsINS_9allocatorINS_4pairIdNS2_IiiEEEEEEE8max_sizeB8ue170006IS5_vEEmRKS5_, symObjAddr: 0x4270, symBinAddr: 0x100004A20, symSize: 0x20 }
  - { offsetInCU: 0x11583, offset: 0x11583, size: 0x8, addend: 0x0, symName: __ZNKSt3__16vectorINS_4pairIdNS1_IiiEEEENS_9allocatorIS3_EEE7__allocB8ue170006Ev, symObjAddr: 0x4290, symBinAddr: 0x100004A40, symSize: 0x20 }
  - { offsetInCU: 0x115A8, offset: 0x115A8, size: 0x8, addend: 0x0, symName: __ZNSt3__114numeric_limitsIlE3maxB8ue170006Ev, symObjAddr: 0x42B0, symBinAddr: 0x100004A60, symSize: 0x10 }
  - { offsetInCU: 0x115D0, offset: 0x115D0, size: 0x8, addend: 0x0, symName: __ZNKSt3__16__lessIvvEclB8ue170006ImmEEbRKT_RKT0_, symObjAddr: 0x4310, symBinAddr: 0x100004AC0, symSize: 0x30 }
  - { offsetInCU: 0x11623, offset: 0x11623, size: 0x8, addend: 0x0, symName: __ZNKSt3__19allocatorINS_4pairIdNS1_IiiEEEEE8max_sizeB8ue170006Ev, symObjAddr: 0x4340, symBinAddr: 0x100004AF0, symSize: 0x20 }
  - { offsetInCU: 0x11648, offset: 0x11648, size: 0x8, addend: 0x0, symName: __ZNKSt3__117__compressed_pairIPNS_4pairIdNS1_IiiEEEENS_9allocatorIS3_EEE6secondB8ue170006Ev, symObjAddr: 0x4360, symBinAddr: 0x100004B10, symSize: 0x20 }
  - { offsetInCU: 0x1166D, offset: 0x1166D, size: 0x8, addend: 0x0, symName: __ZNKSt3__122__compressed_pair_elemINS_9allocatorINS_4pairIdNS2_IiiEEEEEELi1ELb1EE5__getB8ue170006Ev, symObjAddr: 0x4380, symBinAddr: 0x100004B30, symSize: 0x10 }
  - { offsetInCU: 0x11692, offset: 0x11692, size: 0x8, addend: 0x0, symName: __ZNSt3__123__libcpp_numeric_limitsIlLb1EE3maxB8ue170006Ev, symObjAddr: 0x4390, symBinAddr: 0x100004B40, symSize: 0x10 }
  - { offsetInCU: 0x116A6, offset: 0x116A6, size: 0x8, addend: 0x0, symName: __ZNSt12length_errorC1B8ue170006EPKc, symObjAddr: 0x4410, symBinAddr: 0x100004BC0, symSize: 0x30 }
  - { offsetInCU: 0x116DD, offset: 0x116DD, size: 0x8, addend: 0x0, symName: __ZNSt12length_errorC2B8ue170006EPKc, symObjAddr: 0x4440, symBinAddr: 0x100004BF0, symSize: 0x40 }
  - { offsetInCU: 0x11714, offset: 0x11714, size: 0x8, addend: 0x0, symName: __ZNSt3__114__split_bufferINS_4pairIdNS1_IiiEEEERNS_9allocatorIS3_EEEC2EmmS6_, symObjAddr: 0x44D0, symBinAddr: 0x100004C80, symSize: 0xD0 }
  - { offsetInCU: 0x1178B, offset: 0x1178B, size: 0x8, addend: 0x0, symName: __ZNSt3__117__compressed_pairIPNS_4pairIdNS1_IiiEEEERNS_9allocatorIS3_EEEC1B8ue170006IDnS7_EEOT_OT0_, symObjAddr: 0x45A0, symBinAddr: 0x100004D50, symSize: 0x30 }
  - { offsetInCU: 0x117E2, offset: 0x117E2, size: 0x8, addend: 0x0, symName: __ZNSt3__114__split_bufferINS_4pairIdNS1_IiiEEEERNS_9allocatorIS3_EEE7__allocB8ue170006Ev, symObjAddr: 0x4610, symBinAddr: 0x100004DC0, symSize: 0x20 }
  - { offsetInCU: 0x11807, offset: 0x11807, size: 0x8, addend: 0x0, symName: __ZNSt3__114__split_bufferINS_4pairIdNS1_IiiEEEERNS_9allocatorIS3_EEE9__end_capB8ue170006Ev, symObjAddr: 0x4630, symBinAddr: 0x100004DE0, symSize: 0x20 }
  - { offsetInCU: 0x1182C, offset: 0x1182C, size: 0x8, addend: 0x0, symName: __ZNSt3__117__compressed_pairIPNS_4pairIdNS1_IiiEEEERNS_9allocatorIS3_EEEC2B8ue170006IDnS7_EEOT_OT0_, symObjAddr: 0x4650, symBinAddr: 0x100004E00, symSize: 0x40 }
  - { offsetInCU: 0x11883, offset: 0x11883, size: 0x8, addend: 0x0, symName: __ZNSt3__122__compressed_pair_elemIPNS_4pairIdNS1_IiiEEEELi0ELb0EEC2B8ue170006IDnvEEOT_, symObjAddr: 0x4690, symBinAddr: 0x100004E40, symSize: 0x20 }
  - { offsetInCU: 0x118C4, offset: 0x118C4, size: 0x8, addend: 0x0, symName: __ZNSt3__122__compressed_pair_elemIRNS_9allocatorINS_4pairIdNS2_IiiEEEEEELi1ELb0EEC2B8ue170006IS6_vEEOT_, symObjAddr: 0x46B0, symBinAddr: 0x100004E60, symSize: 0x20 }
  - { offsetInCU: 0x11905, offset: 0x11905, size: 0x8, addend: 0x0, symName: __ZNSt3__19allocatorINS_4pairIdNS1_IiiEEEEE8allocateB8ue170006Em, symObjAddr: 0x46D0, symBinAddr: 0x100004E80, symSize: 0x50 }
  - { offsetInCU: 0x11938, offset: 0x11938, size: 0x8, addend: 0x0, symName: __ZNSt3__117__compressed_pairIPNS_4pairIdNS1_IiiEEEERNS_9allocatorIS3_EEE6secondB8ue170006Ev, symObjAddr: 0x47A0, symBinAddr: 0x100004F50, symSize: 0x20 }
  - { offsetInCU: 0x1195D, offset: 0x1195D, size: 0x8, addend: 0x0, symName: __ZNSt3__122__compressed_pair_elemIRNS_9allocatorINS_4pairIdNS2_IiiEEEEEELi1ELb0EE5__getB8ue170006Ev, symObjAddr: 0x47C0, symBinAddr: 0x100004F70, symSize: 0x20 }
  - { offsetInCU: 0x11982, offset: 0x11982, size: 0x8, addend: 0x0, symName: __ZNSt3__117__compressed_pairIPNS_4pairIdNS1_IiiEEEERNS_9allocatorIS3_EEE5firstB8ue170006Ev, symObjAddr: 0x47E0, symBinAddr: 0x100004F90, symSize: 0x20 }
  - { offsetInCU: 0x119A7, offset: 0x119A7, size: 0x8, addend: 0x0, symName: __ZNSt3__116reverse_iteratorIPNS_4pairIdNS1_IiiEEEEEC1B8ue170006ES4_, symObjAddr: 0x4980, symBinAddr: 0x100005130, symSize: 0x30 }
  - { offsetInCU: 0x119DE, offset: 0x119DE, size: 0x8, addend: 0x0, symName: __ZNKSt3__116reverse_iteratorIPNS_4pairIdNS1_IiiEEEEE4baseB8ue170006Ev, symObjAddr: 0x49B0, symBinAddr: 0x100005160, symSize: 0x20 }
  - { offsetInCU: 0x11A03, offset: 0x11A03, size: 0x8, addend: 0x0, symName: __ZNKSt3__16vectorINS_4pairIdNS1_IiiEEEENS_9allocatorIS3_EEE14__annotate_newB8ue170006Em, symObjAddr: 0x4A10, symBinAddr: 0x1000051C0, symSize: 0xB0 }
  - { offsetInCU: 0x11A37, offset: 0x11A37, size: 0x8, addend: 0x0, symName: __ZNSt3__129_AllocatorDestroyRangeReverseINS_9allocatorINS_4pairIdNS2_IiiEEEEEENS_16reverse_iteratorIPS4_EEEC1B8ue170006ERS5_RS8_SB_, symObjAddr: 0x4B20, symBinAddr: 0x1000052D0, symSize: 0x40 }
  - { offsetInCU: 0x11A8D, offset: 0x11A8D, size: 0x8, addend: 0x0, symName: __ZNKSt3__116reverse_iteratorIPNS_4pairIdNS1_IiiEEEEEdeB8ue170006Ev, symObjAddr: 0x4BC0, symBinAddr: 0x100005370, symSize: 0x30 }
  - { offsetInCU: 0x11AC0, offset: 0x11AC0, size: 0x8, addend: 0x0, symName: __ZNSt3__116reverse_iteratorIPNS_4pairIdNS1_IiiEEEEEppB8ue170006Ev, symObjAddr: 0x4BF0, symBinAddr: 0x1000053A0, symSize: 0x20 }
  - { offsetInCU: 0x11AE5, offset: 0x11AE5, size: 0x8, addend: 0x0, symName: __ZNSt3__128__exception_guard_exceptionsINS_29_AllocatorDestroyRangeReverseINS_9allocatorINS_4pairIdNS3_IiiEEEEEENS_16reverse_iteratorIPS5_EEEEE10__completeB8ue170006Ev, symObjAddr: 0x4C10, symBinAddr: 0x1000053C0, symSize: 0x20 }
  - { offsetInCU: 0x11B0A, offset: 0x11B0A, size: 0x8, addend: 0x0, symName: __ZNSt3__128__exception_guard_exceptionsINS_29_AllocatorDestroyRangeReverseINS_9allocatorINS_4pairIdNS3_IiiEEEEEENS_16reverse_iteratorIPS5_EEEEED1B8ue170006Ev, symObjAddr: 0x4C30, symBinAddr: 0x1000053E0, symSize: 0x20 }
  - { offsetInCU: 0x11B33, offset: 0x11B33, size: 0x8, addend: 0x0, symName: __ZNSt3__128__exception_guard_exceptionsINS_29_AllocatorDestroyRangeReverseINS_9allocatorINS_4pairIdNS3_IiiEEEEEENS_16reverse_iteratorIPS5_EEEEEC1B8ue170006ESA_, symObjAddr: 0x4C50, symBinAddr: 0x100005400, symSize: 0x40 }
  - { offsetInCU: 0x11B6A, offset: 0x11B6A, size: 0x8, addend: 0x0, symName: __ZNSt3__128__exception_guard_exceptionsINS_29_AllocatorDestroyRangeReverseINS_9allocatorINS_4pairIdNS3_IiiEEEEEENS_16reverse_iteratorIPS5_EEEEEC2B8ue170006ESA_, symObjAddr: 0x4C90, symBinAddr: 0x100005440, symSize: 0x30 }
  - { offsetInCU: 0x11BA1, offset: 0x11BA1, size: 0x8, addend: 0x0, symName: __ZNSt3__129_AllocatorDestroyRangeReverseINS_9allocatorINS_4pairIdNS2_IiiEEEEEENS_16reverse_iteratorIPS4_EEEC2B8ue170006ERS5_RS8_SB_, symObjAddr: 0x4CC0, symBinAddr: 0x100005470, symSize: 0x40 }
  - { offsetInCU: 0x11BFC, offset: 0x11BFC, size: 0x8, addend: 0x0, symName: __ZNSt3__119__to_address_helperINS_16reverse_iteratorIPNS_4pairIdNS2_IiiEEEEEEvE6__callB8ue170006ERKS6_, symObjAddr: 0x4D00, symBinAddr: 0x1000054B0, symSize: 0x40 }
  - { offsetInCU: 0x11C1F, offset: 0x11C1F, size: 0x8, addend: 0x0, symName: __ZNKSt3__116reverse_iteratorIPNS_4pairIdNS1_IiiEEEEEptB8ue170006Ev, symObjAddr: 0x4D40, symBinAddr: 0x1000054F0, symSize: 0x20 }
  - { offsetInCU: 0x11C44, offset: 0x11C44, size: 0x8, addend: 0x0, symName: __ZNSt3__128__exception_guard_exceptionsINS_29_AllocatorDestroyRangeReverseINS_9allocatorINS_4pairIdNS3_IiiEEEEEENS_16reverse_iteratorIPS5_EEEEED2B8ue170006Ev, symObjAddr: 0x4D60, symBinAddr: 0x100005510, symSize: 0x40 }
  - { offsetInCU: 0x11C6D, offset: 0x11C6D, size: 0x8, addend: 0x0, symName: __ZNKSt3__129_AllocatorDestroyRangeReverseINS_9allocatorINS_4pairIdNS2_IiiEEEEEENS_16reverse_iteratorIPS4_EEEclB8ue170006Ev, symObjAddr: 0x4DA0, symBinAddr: 0x100005550, symSize: 0xF0 }
  - { offsetInCU: 0x11C93, offset: 0x11C93, size: 0x8, addend: 0x0, symName: __ZNSt3__116reverse_iteratorINS0_IPNS_4pairIdNS1_IiiEEEEEEEC1B8ue170006ES5_, symObjAddr: 0x4F00, symBinAddr: 0x1000056B0, symSize: 0x30 }
  - { offsetInCU: 0x11CCA, offset: 0x11CCA, size: 0x8, addend: 0x0, symName: __ZNSt3__116reverse_iteratorINS0_IPNS_4pairIdNS1_IiiEEEEEEEppB8ue170006Ev, symObjAddr: 0x4FA0, symBinAddr: 0x100005750, symSize: 0x30 }
  - { offsetInCU: 0x11CEF, offset: 0x11CEF, size: 0x8, addend: 0x0, symName: __ZNKSt3__116reverse_iteratorINS0_IPNS_4pairIdNS1_IiiEEEEEEE4baseB8ue170006Ev, symObjAddr: 0x4FD0, symBinAddr: 0x100005780, symSize: 0x20 }
  - { offsetInCU: 0x11D19, offset: 0x11D19, size: 0x8, addend: 0x0, symName: __ZNSt3__119__to_address_helperINS_16reverse_iteratorINS1_IPNS_4pairIdNS2_IiiEEEEEEEEvE6__callB8ue170006ERKS7_, symObjAddr: 0x4FF0, symBinAddr: 0x1000057A0, symSize: 0x40 }
  - { offsetInCU: 0x11D3C, offset: 0x11D3C, size: 0x8, addend: 0x0, symName: __ZNKSt3__116reverse_iteratorINS0_IPNS_4pairIdNS1_IiiEEEEEEEptB8ue170006Ev, symObjAddr: 0x5030, symBinAddr: 0x1000057E0, symSize: 0x20 }
  - { offsetInCU: 0x11D61, offset: 0x11D61, size: 0x8, addend: 0x0, symName: __ZNKSt3__116reverse_iteratorINS0_IPNS_4pairIdNS1_IiiEEEEEEEdeB8ue170006Ev, symObjAddr: 0x5050, symBinAddr: 0x100005800, symSize: 0x40 }
  - { offsetInCU: 0x11D94, offset: 0x11D94, size: 0x8, addend: 0x0, symName: __ZNSt3__116reverse_iteratorIPNS_4pairIdNS1_IiiEEEEEmmB8ue170006Ev, symObjAddr: 0x5090, symBinAddr: 0x100005840, symSize: 0x20 }
  - { offsetInCU: 0x11DB9, offset: 0x11DB9, size: 0x8, addend: 0x0, symName: __ZNSt3__116reverse_iteratorINS0_IPNS_4pairIdNS1_IiiEEEEEEEC2B8ue170006ES5_, symObjAddr: 0x50B0, symBinAddr: 0x100005860, symSize: 0x40 }
  - { offsetInCU: 0x11DF0, offset: 0x11DF0, size: 0x8, addend: 0x0, symName: __ZNSt3__116reverse_iteratorIPNS_4pairIdNS1_IiiEEEEEC2B8ue170006ES4_, symObjAddr: 0x50F0, symBinAddr: 0x1000058A0, symSize: 0x30 }
  - { offsetInCU: 0x11E27, offset: 0x11E27, size: 0x8, addend: 0x0, symName: __ZNSt3__114__split_bufferINS_4pairIdNS1_IiiEEEERNS_9allocatorIS3_EEED2Ev, symObjAddr: 0x5120, symBinAddr: 0x1000058D0, symSize: 0x70 }
  - { offsetInCU: 0x11E52, offset: 0x11E52, size: 0x8, addend: 0x0, symName: __ZNSt3__114__split_bufferINS_4pairIdNS1_IiiEEEERNS_9allocatorIS3_EEE5clearB8ue170006Ev, symObjAddr: 0x5190, symBinAddr: 0x100005940, symSize: 0x20 }
  - { offsetInCU: 0x11E77, offset: 0x11E77, size: 0x8, addend: 0x0, symName: __ZNKSt3__114__split_bufferINS_4pairIdNS1_IiiEEEERNS_9allocatorIS3_EEE8capacityB8ue170006Ev, symObjAddr: 0x51B0, symBinAddr: 0x100005960, symSize: 0x30 }
  - { offsetInCU: 0x11E9C, offset: 0x11E9C, size: 0x8, addend: 0x0, symName: __ZNSt3__114__split_bufferINS_4pairIdNS1_IiiEEEERNS_9allocatorIS3_EEE17__destruct_at_endB8ue170006EPS3_, symObjAddr: 0x51E0, symBinAddr: 0x100005990, symSize: 0x30 }
  - { offsetInCU: 0x11ECE, offset: 0x11ECE, size: 0x8, addend: 0x0, symName: __ZNSt3__114__split_bufferINS_4pairIdNS1_IiiEEEERNS_9allocatorIS3_EEE17__destruct_at_endB8ue170006EPS3_NS_17integral_constantIbLb0EEE, symObjAddr: 0x5210, symBinAddr: 0x1000059C0, symSize: 0x80 }
  - { offsetInCU: 0x11F0D, offset: 0x11F0D, size: 0x8, addend: 0x0, symName: __ZNKSt3__114__split_bufferINS_4pairIdNS1_IiiEEEERNS_9allocatorIS3_EEE9__end_capB8ue170006Ev, symObjAddr: 0x5290, symBinAddr: 0x100005A40, symSize: 0x20 }
  - { offsetInCU: 0x11F32, offset: 0x11F32, size: 0x8, addend: 0x0, symName: __ZNKSt3__117__compressed_pairIPNS_4pairIdNS1_IiiEEEERNS_9allocatorIS3_EEE5firstB8ue170006Ev, symObjAddr: 0x52B0, symBinAddr: 0x100005A60, symSize: 0x20 }
  - { offsetInCU: 0x11F57, offset: 0x11F57, size: 0x8, addend: 0x0, symName: __ZNKSt3__111__wrap_iterIPNS_4pairIdNS1_IiiEEEEE4baseB8ue170006Ev, symObjAddr: 0x54C0, symBinAddr: 0x100005C70, symSize: 0x20 }
  - { offsetInCU: 0x11F7C, offset: 0x11F7C, size: 0x8, addend: 0x0, symName: __ZNKSt3__111__wrap_iterIPNS_4pairIdNS1_IiiEEEEEplB8ue170006El, symObjAddr: 0x54E0, symBinAddr: 0x100005C90, symSize: 0x40 }
  - { offsetInCU: 0x11FBD, offset: 0x11FBD, size: 0x8, addend: 0x0, symName: __ZN12CompareDeltaclERKNSt3__14pairIdNS1_IiiEEEES5_, symObjAddr: 0x5520, symBinAddr: 0x100005CD0, symSize: 0x30 }
  - { offsetInCU: 0x11FFE, offset: 0x11FFE, size: 0x8, addend: 0x0, symName: __ZNKSt3__111__wrap_iterIPNS_4pairIdNS1_IiiEEEEEdeB8ue170006Ev, symObjAddr: 0x5550, symBinAddr: 0x100005D00, symSize: 0x20 }
  - { offsetInCU: 0x12023, offset: 0x12023, size: 0x8, addend: 0x0, symName: __ZNSt3__111__wrap_iterIPNS_4pairIdNS1_IiiEEEEEmmB8ue170006Ev, symObjAddr: 0x5570, symBinAddr: 0x100005D20, symSize: 0x20 }
  - { offsetInCU: 0x12048, offset: 0x12048, size: 0x8, addend: 0x0, symName: __ZNSt3__18_IterOpsINS_17_ClassicAlgPolicyEE11__iter_moveB8ue170006IRNS_11__wrap_iterIPNS_4pairIdNS5_IiiEEEEEEEENS_9enable_ifIXsr12is_referenceIDTdeclsr3stdE7declvalIRT_EEEEE5valueEDTclsr3stdE4movedeclsr3stdE7declvalISD_EEEEE4typeEOSC_, symObjAddr: 0x5590, symBinAddr: 0x100005D40, symSize: 0x20 }
  - { offsetInCU: 0x12074, offset: 0x12074, size: 0x8, addend: 0x0, symName: __ZNSt3__14pairIdNS0_IiiEEEaSB8ue170006EOS2_, symObjAddr: 0x55B0, symBinAddr: 0x100005D60, symSize: 0x40 }
  - { offsetInCU: 0x120A8, offset: 0x120A8, size: 0x8, addend: 0x0, symName: __ZNSt3__111__wrap_iterIPNS_4pairIdNS1_IiiEEEEEpLB8ue170006El, symObjAddr: 0x55F0, symBinAddr: 0x100005DA0, symSize: 0x20 }
  - { offsetInCU: 0x120DB, offset: 0x120DB, size: 0x8, addend: 0x0, symName: __ZNSt3__18_IterOpsINS_17_ClassicAlgPolicyEE25__validate_iter_referenceB8ue170006IRNS_11__wrap_iterIPNS_4pairIdNS5_IiiEEEEEEEEvv, symObjAddr: 0x5610, symBinAddr: 0x100005DC0, symSize: 0x10 }
  - { offsetInCU: 0x120F9, offset: 0x120F9, size: 0x8, addend: 0x0, symName: __ZNSt3__14pairIiiEaSB8ue170006EOS1_, symObjAddr: 0x5620, symBinAddr: 0x100005DD0, symSize: 0x30 }
  - { offsetInCU: 0x1212C, offset: 0x1212C, size: 0x8, addend: 0x0, symName: __ZNSt3__16vectorINS_4pairIdNS1_IiiEEEENS_9allocatorIS3_EEE8pop_backEv, symObjAddr: 0x56A0, symBinAddr: 0x100005E50, symSize: 0x30 }
  - { offsetInCU: 0x12153, offset: 0x12153, size: 0x8, addend: 0x0, symName: __ZNSt3__111__wrap_iterIPNS_4pairIdNS1_IiiEEEEEppB8ue170006Ev, symObjAddr: 0x5970, symBinAddr: 0x100006120, symSize: 0x20 }
  - { offsetInCU: 0x12178, offset: 0x12178, size: 0x8, addend: 0x0, symName: __ZNSt3__16vectorINS_4pairIdNS1_IiiEEEENS_9allocatorIS3_EEE17__destruct_at_endB8ue170006EPS3_, symObjAddr: 0x5990, symBinAddr: 0x100006140, symSize: 0x50 }
  - { offsetInCU: 0x121BB, offset: 0x121BB, size: 0x8, addend: 0x0, symName: __ZNKSt3__16vectorINS_4pairIdNS1_IiiEEEENS_9allocatorIS3_EEE17__annotate_shrinkB8ue170006Em, symObjAddr: 0x59E0, symBinAddr: 0x100006190, symSize: 0xA0 }
  - { offsetInCU: 0x121EF, offset: 0x121EF, size: 0x8, addend: 0x0, symName: __ZNSt3__16vectorINS_4pairIdNS1_IiiEEEENS_9allocatorIS3_EEEC2B8ue170006Ev, symObjAddr: 0x5A80, symBinAddr: 0x100006230, symSize: 0x50 }
  - { offsetInCU: 0x12218, offset: 0x12218, size: 0x8, addend: 0x0, symName: __ZNSt3__117__compressed_pairIPNS_4pairIdNS1_IiiEEEENS_9allocatorIS3_EEEC1B8ue170006IDnNS_18__default_init_tagEEEOT_OT0_, symObjAddr: 0x5AD0, symBinAddr: 0x100006280, symSize: 0x30 }
  - { offsetInCU: 0x1226F, offset: 0x1226F, size: 0x8, addend: 0x0, symName: __ZNSt3__117__compressed_pairIPNS_4pairIdNS1_IiiEEEENS_9allocatorIS3_EEEC2B8ue170006IDnNS_18__default_init_tagEEEOT_OT0_, symObjAddr: 0x5B00, symBinAddr: 0x1000062B0, symSize: 0x40 }
  - { offsetInCU: 0x122C6, offset: 0x122C6, size: 0x8, addend: 0x0, symName: __ZNSt3__122__compressed_pair_elemINS_9allocatorINS_4pairIdNS2_IiiEEEEEELi1ELb1EEC2B8ue170006ENS_18__default_init_tagE, symObjAddr: 0x5B40, symBinAddr: 0x1000062F0, symSize: 0x20 }
  - { offsetInCU: 0x122F9, offset: 0x122F9, size: 0x8, addend: 0x0, symName: __ZNSt3__19allocatorINS_4pairIdNS1_IiiEEEEEC2B8ue170006Ev, symObjAddr: 0x5B60, symBinAddr: 0x100006310, symSize: 0x20 }
  - { offsetInCU: 0x12322, offset: 0x12322, size: 0x8, addend: 0x0, symName: __ZNSt3__116__non_trivial_ifILb1ENS_9allocatorINS_4pairIdNS2_IiiEEEEEEEC2B8ue170006Ev, symObjAddr: 0x5B80, symBinAddr: 0x100006330, symSize: 0x10 }
  - { offsetInCU: 0x1234B, offset: 0x1234B, size: 0x8, addend: 0x0, symName: __ZNKSt3__16vectorINS_4pairIdNS1_IiiEEEENS_9allocatorIS3_EEE5emptyB8ue170006Ev, symObjAddr: 0x5B90, symBinAddr: 0x100006340, symSize: 0x20 }
  - { offsetInCU: 0x12370, offset: 0x12370, size: 0x8, addend: 0x0, symName: __ZNKSt3__16vectorINS_4pairIdNS1_IiiEEEENS_9allocatorIS3_EEE5frontB8ue170006Ev, symObjAddr: 0x5BB0, symBinAddr: 0x100006360, symSize: 0x20 }
  - { offsetInCU: 0x12395, offset: 0x12395, size: 0x8, addend: 0x0, symName: __ZNSt3__16vectorINS_4pairIdNS1_IiiEEEENS_9allocatorIS3_EEE22__construct_one_at_endB8ue170006IJRKS3_EEEvDpOT_, symObjAddr: 0x5BD0, symBinAddr: 0x100006380, symSize: 0x90 }
  - { offsetInCU: 0x123E2, offset: 0x123E2, size: 0x8, addend: 0x0, symName: __ZNSt3__16vectorINS_4pairIdNS1_IiiEEEENS_9allocatorIS3_EEE21__push_back_slow_pathIRKS3_EEvOT_, symObjAddr: 0x5C60, symBinAddr: 0x100006410, symSize: 0xD0 }
  - { offsetInCU: 0x1243F, offset: 0x1243F, size: 0x8, addend: 0x0, symName: __ZNSt3__116allocator_traitsINS_9allocatorINS_4pairIdNS2_IiiEEEEEEE9constructB8ue170006IS4_JRKS4_EvEEvRS5_PT_DpOT0_, symObjAddr: 0x5D30, symBinAddr: 0x1000064E0, symSize: 0x30 }
  - { offsetInCU: 0x12496, offset: 0x12496, size: 0x8, addend: 0x0, symName: __ZNSt3__19allocatorINS_4pairIdNS1_IiiEEEEE9constructB8ue170006IS3_JRKS3_EEEvPT_DpOT0_, symObjAddr: 0x5D60, symBinAddr: 0x100006510, symSize: 0x30 }
  - { offsetInCU: 0x124EB, offset: 0x124EB, size: 0x8, addend: 0x0, symName: __ZNSt3__16vectorINS_4pairIdNS1_IiiEEEENS_9allocatorIS3_EEE11__make_iterB8ue170006EPS3_, symObjAddr: 0x5D90, symBinAddr: 0x100006540, symSize: 0x30 }
  - { offsetInCU: 0x1251F, offset: 0x1251F, size: 0x8, addend: 0x0, symName: __ZNSt3__111__wrap_iterIPNS_4pairIdNS1_IiiEEEEEC1B8ue170006ES4_, symObjAddr: 0x5DC0, symBinAddr: 0x100006570, symSize: 0x30 }
  - { offsetInCU: 0x12556, offset: 0x12556, size: 0x8, addend: 0x0, symName: __ZNSt3__111__wrap_iterIPNS_4pairIdNS1_IiiEEEEEC2B8ue170006ES4_, symObjAddr: 0x5DF0, symBinAddr: 0x1000065A0, symSize: 0x20 }
  - { offsetInCU: 0x1258D, offset: 0x1258D, size: 0x8, addend: 0x0, symName: __ZNSt3__18_IterOpsINS_17_ClassicAlgPolicyEE9iter_swapB8ue170006IRNS_11__wrap_iterIPNS_4pairIdNS5_IiiEEEEEESA_EEvOT_OT0_, symObjAddr: 0x5F40, symBinAddr: 0x1000066F0, symSize: 0x40 }
  - { offsetInCU: 0x125D0, offset: 0x125D0, size: 0x8, addend: 0x0, symName: __ZNSt3__14pairIdNS0_IiiEEE4swapB8ue170006ERS2_, symObjAddr: 0x5FF0, symBinAddr: 0x1000067A0, symSize: 0x40 }
  - { offsetInCU: 0x12604, offset: 0x12604, size: 0x8, addend: 0x0, symName: __ZNSt3__14pairIiiE4swapB8ue170006ERS1_, symObjAddr: 0x60A0, symBinAddr: 0x100006850, symSize: 0x40 }
  - { offsetInCU: 0x12638, offset: 0x12638, size: 0x8, addend: 0x0, symName: __ZNSt3__114priority_queueINS_4pairINS1_IdNS1_IiiEEEEiEENS_6vectorIS4_NS_9allocatorIS4_EEEE10CompareSumEC2B8ue170006Ev, symObjAddr: 0x6110, symBinAddr: 0x1000068C0, symSize: 0x20 }
  - { offsetInCU: 0x12661, offset: 0x12661, size: 0x8, addend: 0x0, symName: __ZNSt3__16vectorINS_4pairINS1_IdNS1_IiiEEEEiEENS_9allocatorIS4_EEEC1B8ue170006Ev, symObjAddr: 0x6130, symBinAddr: 0x1000068E0, symSize: 0x20 }
  - { offsetInCU: 0x1268A, offset: 0x1268A, size: 0x8, addend: 0x0, symName: __ZNSt3__16vectorINS_4pairINS1_IdNS1_IiiEEEEiEENS_9allocatorIS4_EEEC2B8ue170006Ev, symObjAddr: 0x6150, symBinAddr: 0x100006900, symSize: 0x50 }
  - { offsetInCU: 0x126B3, offset: 0x126B3, size: 0x8, addend: 0x0, symName: __ZNSt3__117__compressed_pairIPNS_4pairINS1_IdNS1_IiiEEEEiEENS_9allocatorIS4_EEEC1B8ue170006IDnNS_18__default_init_tagEEEOT_OT0_, symObjAddr: 0x61A0, symBinAddr: 0x100006950, symSize: 0x30 }
  - { offsetInCU: 0x1270A, offset: 0x1270A, size: 0x8, addend: 0x0, symName: __ZNSt3__117__compressed_pairIPNS_4pairINS1_IdNS1_IiiEEEEiEENS_9allocatorIS4_EEEC2B8ue170006IDnNS_18__default_init_tagEEEOT_OT0_, symObjAddr: 0x61D0, symBinAddr: 0x100006980, symSize: 0x40 }
  - { offsetInCU: 0x12761, offset: 0x12761, size: 0x8, addend: 0x0, symName: __ZNSt3__122__compressed_pair_elemIPNS_4pairINS1_IdNS1_IiiEEEEiEELi0ELb0EEC2B8ue170006IDnvEEOT_, symObjAddr: 0x6210, symBinAddr: 0x1000069C0, symSize: 0x20 }
  - { offsetInCU: 0x127A2, offset: 0x127A2, size: 0x8, addend: 0x0, symName: __ZNSt3__122__compressed_pair_elemINS_9allocatorINS_4pairINS2_IdNS2_IiiEEEEiEEEELi1ELb1EEC2B8ue170006ENS_18__default_init_tagE, symObjAddr: 0x6230, symBinAddr: 0x1000069E0, symSize: 0x20 }
  - { offsetInCU: 0x127D5, offset: 0x127D5, size: 0x8, addend: 0x0, symName: __ZNSt3__19allocatorINS_4pairINS1_IdNS1_IiiEEEEiEEEC2B8ue170006Ev, symObjAddr: 0x6250, symBinAddr: 0x100006A00, symSize: 0x20 }
  - { offsetInCU: 0x127FE, offset: 0x127FE, size: 0x8, addend: 0x0, symName: __ZNSt3__116__non_trivial_ifILb1ENS_9allocatorINS_4pairINS2_IdNS2_IiiEEEEiEEEEEC2B8ue170006Ev, symObjAddr: 0x6270, symBinAddr: 0x100006A20, symSize: 0x10 }
  - { offsetInCU: 0x12826, offset: 0x12826, size: 0x8, addend: 0x0, symName: __ZNSt3__16vectorINS_4pairINS1_IdNS1_IiiEEEEiEENS_9allocatorIS4_EEE9push_backB8ue170006EOS4_, symObjAddr: 0x6280, symBinAddr: 0x100006A30, symSize: 0x60 }
  - { offsetInCU: 0x1285B, offset: 0x1285B, size: 0x8, addend: 0x0, symName: __ZNSt3__16vectorINS_4pairINS1_IdNS1_IiiEEEEiEENS_9allocatorIS4_EEE5beginB8ue170006Ev, symObjAddr: 0x6320, symBinAddr: 0x100006AD0, symSize: 0x30 }
  - { offsetInCU: 0x12881, offset: 0x12881, size: 0x8, addend: 0x0, symName: __ZNSt3__16vectorINS_4pairINS1_IdNS1_IiiEEEEiEENS_9allocatorIS4_EEE3endB8ue170006Ev, symObjAddr: 0x6350, symBinAddr: 0x100006B00, symSize: 0x30 }
  - { offsetInCU: 0x128A8, offset: 0x128A8, size: 0x8, addend: 0x0, symName: __ZNSt3__16vectorINS_4pairINS1_IdNS1_IiiEEEEiEENS_9allocatorIS4_EEE9__end_capB8ue170006Ev, symObjAddr: 0x6380, symBinAddr: 0x100006B30, symSize: 0x20 }
  - { offsetInCU: 0x128CD, offset: 0x128CD, size: 0x8, addend: 0x0, symName: __ZNSt3__16vectorINS_4pairINS1_IdNS1_IiiEEEEiEENS_9allocatorIS4_EEE22__construct_one_at_endB8ue170006IJS4_EEEvDpOT_, symObjAddr: 0x63A0, symBinAddr: 0x100006B50, symSize: 0x90 }
  - { offsetInCU: 0x1291A, offset: 0x1291A, size: 0x8, addend: 0x0, symName: __ZNSt3__16vectorINS_4pairINS1_IdNS1_IiiEEEEiEENS_9allocatorIS4_EEE21__push_back_slow_pathIS4_EEvOT_, symObjAddr: 0x6430, symBinAddr: 0x100006BE0, symSize: 0xD0 }
  - { offsetInCU: 0x12977, offset: 0x12977, size: 0x8, addend: 0x0, symName: __ZNSt3__117__compressed_pairIPNS_4pairINS1_IdNS1_IiiEEEEiEENS_9allocatorIS4_EEE5firstB8ue170006Ev, symObjAddr: 0x6500, symBinAddr: 0x100006CB0, symSize: 0x20 }
  - { offsetInCU: 0x1299C, offset: 0x1299C, size: 0x8, addend: 0x0, symName: __ZNSt3__122__compressed_pair_elemIPNS_4pairINS1_IdNS1_IiiEEEEiEELi0ELb0EE5__getB8ue170006Ev, symObjAddr: 0x6520, symBinAddr: 0x100006CD0, symSize: 0x10 }
  - { offsetInCU: 0x129DA, offset: 0x129DA, size: 0x8, addend: 0x0, symName: __ZNSt3__16vectorINS_4pairINS1_IdNS1_IiiEEEEiEENS_9allocatorIS4_EEE21_ConstructTransactionC1B8ue170006ERS7_m, symObjAddr: 0x6530, symBinAddr: 0x100006CE0, symSize: 0x30 }
  - { offsetInCU: 0x12A21, offset: 0x12A21, size: 0x8, addend: 0x0, symName: __ZNSt3__116allocator_traitsINS_9allocatorINS_4pairINS2_IdNS2_IiiEEEEiEEEEE9constructB8ue170006IS5_JS5_EvEEvRS6_PT_DpOT0_, symObjAddr: 0x6560, symBinAddr: 0x100006D10, symSize: 0x30 }
  - { offsetInCU: 0x12A78, offset: 0x12A78, size: 0x8, addend: 0x0, symName: __ZNSt3__16vectorINS_4pairINS1_IdNS1_IiiEEEEiEENS_9allocatorIS4_EEE21_ConstructTransactionD1B8ue170006Ev, symObjAddr: 0x6590, symBinAddr: 0x100006D40, symSize: 0x20 }
  - { offsetInCU: 0x12AA1, offset: 0x12AA1, size: 0x8, addend: 0x0, symName: __ZNSt3__16vectorINS_4pairINS1_IdNS1_IiiEEEEiEENS_9allocatorIS4_EEE21_ConstructTransactionC2B8ue170006ERS7_m, symObjAddr: 0x65B0, symBinAddr: 0x100006D60, symSize: 0x40 }
  - { offsetInCU: 0x12AE8, offset: 0x12AE8, size: 0x8, addend: 0x0, symName: __ZNSt3__19allocatorINS_4pairINS1_IdNS1_IiiEEEEiEEE9constructB8ue170006IS4_JS4_EEEvPT_DpOT0_, symObjAddr: 0x65F0, symBinAddr: 0x100006DA0, symSize: 0x30 }
  - { offsetInCU: 0x12B3D, offset: 0x12B3D, size: 0x8, addend: 0x0, symName: __ZNSt3__16vectorINS_4pairINS1_IdNS1_IiiEEEEiEENS_9allocatorIS4_EEE21_ConstructTransactionD2B8ue170006Ev, symObjAddr: 0x6620, symBinAddr: 0x100006DD0, symSize: 0x20 }
  - { offsetInCU: 0x12B65, offset: 0x12B65, size: 0x8, addend: 0x0, symName: __ZNKSt3__16vectorINS_4pairINS1_IdNS1_IiiEEEEiEENS_9allocatorIS4_EEE11__recommendB8ue170006Em, symObjAddr: 0x6640, symBinAddr: 0x100006DF0, symSize: 0xA0 }
  - { offsetInCU: 0x12BB9, offset: 0x12BB9, size: 0x8, addend: 0x0, symName: __ZNSt3__114__split_bufferINS_4pairINS1_IdNS1_IiiEEEEiEERNS_9allocatorIS4_EEEC1EmmS7_, symObjAddr: 0x66E0, symBinAddr: 0x100006E90, symSize: 0x40 }
  - { offsetInCU: 0x12C0E, offset: 0x12C0E, size: 0x8, addend: 0x0, symName: __ZNSt3__114__split_bufferINS_4pairINS1_IdNS1_IiiEEEEiEERNS_9allocatorIS4_EEED1Ev, symObjAddr: 0x6840, symBinAddr: 0x100006FF0, symSize: 0x20 }
  - { offsetInCU: 0x12C38, offset: 0x12C38, size: 0x8, addend: 0x0, symName: __ZNKSt3__16vectorINS_4pairINS1_IdNS1_IiiEEEEiEENS_9allocatorIS4_EEE8max_sizeEv, symObjAddr: 0x6860, symBinAddr: 0x100007010, symSize: 0x60 }
  - { offsetInCU: 0x12C5F, offset: 0x12C5F, size: 0x8, addend: 0x0, symName: __ZNKSt3__16vectorINS_4pairINS1_IdNS1_IiiEEEEiEENS_9allocatorIS4_EEE20__throw_length_errorB8ue170006Ev, symObjAddr: 0x68C0, symBinAddr: 0x100007070, symSize: 0x20 }
  - { offsetInCU: 0x12C8E, offset: 0x12C8E, size: 0x8, addend: 0x0, symName: __ZNSt3__116allocator_traitsINS_9allocatorINS_4pairINS2_IdNS2_IiiEEEEiEEEEE8max_sizeB8ue170006IS6_vEEmRKS6_, symObjAddr: 0x68E0, symBinAddr: 0x100007090, symSize: 0x20 }
  - { offsetInCU: 0x12CBC, offset: 0x12CBC, size: 0x8, addend: 0x0, symName: __ZNKSt3__16vectorINS_4pairINS1_IdNS1_IiiEEEEiEENS_9allocatorIS4_EEE7__allocB8ue170006Ev, symObjAddr: 0x6900, symBinAddr: 0x1000070B0, symSize: 0x20 }
  - { offsetInCU: 0x12CE1, offset: 0x12CE1, size: 0x8, addend: 0x0, symName: __ZNKSt3__19allocatorINS_4pairINS1_IdNS1_IiiEEEEiEEE8max_sizeB8ue170006Ev, symObjAddr: 0x6920, symBinAddr: 0x1000070D0, symSize: 0x20 }
  - { offsetInCU: 0x12D06, offset: 0x12D06, size: 0x8, addend: 0x0, symName: __ZNKSt3__117__compressed_pairIPNS_4pairINS1_IdNS1_IiiEEEEiEENS_9allocatorIS4_EEE6secondB8ue170006Ev, symObjAddr: 0x6940, symBinAddr: 0x1000070F0, symSize: 0x20 }
  - { offsetInCU: 0x12D2B, offset: 0x12D2B, size: 0x8, addend: 0x0, symName: __ZNKSt3__122__compressed_pair_elemINS_9allocatorINS_4pairINS2_IdNS2_IiiEEEEiEEEELi1ELb1EE5__getB8ue170006Ev, symObjAddr: 0x6960, symBinAddr: 0x100007110, symSize: 0x10 }
  - { offsetInCU: 0x12D50, offset: 0x12D50, size: 0x8, addend: 0x0, symName: __ZNSt3__114__split_bufferINS_4pairINS1_IdNS1_IiiEEEEiEERNS_9allocatorIS4_EEEC2EmmS7_, symObjAddr: 0x6970, symBinAddr: 0x100007120, symSize: 0xC0 }
  - { offsetInCU: 0x12DC2, offset: 0x12DC2, size: 0x8, addend: 0x0, symName: __ZNSt3__117__compressed_pairIPNS_4pairINS1_IdNS1_IiiEEEEiEERNS_9allocatorIS4_EEEC1B8ue170006IDnS8_EEOT_OT0_, symObjAddr: 0x6A30, symBinAddr: 0x1000071E0, symSize: 0x30 }
  - { offsetInCU: 0x12E19, offset: 0x12E19, size: 0x8, addend: 0x0, symName: __ZNSt3__114__split_bufferINS_4pairINS1_IdNS1_IiiEEEEiEERNS_9allocatorIS4_EEE7__allocB8ue170006Ev, symObjAddr: 0x6AA0, symBinAddr: 0x100007250, symSize: 0x20 }
  - { offsetInCU: 0x12E3E, offset: 0x12E3E, size: 0x8, addend: 0x0, symName: __ZNSt3__114__split_bufferINS_4pairINS1_IdNS1_IiiEEEEiEERNS_9allocatorIS4_EEE9__end_capB8ue170006Ev, symObjAddr: 0x6AC0, symBinAddr: 0x100007270, symSize: 0x20 }
  - { offsetInCU: 0x12E63, offset: 0x12E63, size: 0x8, addend: 0x0, symName: __ZNSt3__117__compressed_pairIPNS_4pairINS1_IdNS1_IiiEEEEiEERNS_9allocatorIS4_EEEC2B8ue170006IDnS8_EEOT_OT0_, symObjAddr: 0x6AE0, symBinAddr: 0x100007290, symSize: 0x40 }
  - { offsetInCU: 0x12EBA, offset: 0x12EBA, size: 0x8, addend: 0x0, symName: __ZNSt3__122__compressed_pair_elemIRNS_9allocatorINS_4pairINS2_IdNS2_IiiEEEEiEEEELi1ELb0EEC2B8ue170006IS7_vEEOT_, symObjAddr: 0x6B20, symBinAddr: 0x1000072D0, symSize: 0x20 }
  - { offsetInCU: 0x12EFB, offset: 0x12EFB, size: 0x8, addend: 0x0, symName: __ZNSt3__19allocatorINS_4pairINS1_IdNS1_IiiEEEEiEEE8allocateB8ue170006Em, symObjAddr: 0x6B40, symBinAddr: 0x1000072F0, symSize: 0x50 }
  - { offsetInCU: 0x12F2E, offset: 0x12F2E, size: 0x8, addend: 0x0, symName: __ZNSt3__117__compressed_pairIPNS_4pairINS1_IdNS1_IiiEEEEiEERNS_9allocatorIS4_EEE6secondB8ue170006Ev, symObjAddr: 0x6B90, symBinAddr: 0x100007340, symSize: 0x20 }
  - { offsetInCU: 0x12F53, offset: 0x12F53, size: 0x8, addend: 0x0, symName: __ZNSt3__122__compressed_pair_elemIRNS_9allocatorINS_4pairINS2_IdNS2_IiiEEEEiEEEELi1ELb0EE5__getB8ue170006Ev, symObjAddr: 0x6BB0, symBinAddr: 0x100007360, symSize: 0x20 }
  - { offsetInCU: 0x12F78, offset: 0x12F78, size: 0x8, addend: 0x0, symName: __ZNSt3__117__compressed_pairIPNS_4pairINS1_IdNS1_IiiEEEEiEERNS_9allocatorIS4_EEE5firstB8ue170006Ev, symObjAddr: 0x6BD0, symBinAddr: 0x100007380, symSize: 0x20 }
  - { offsetInCU: 0x12F9D, offset: 0x12F9D, size: 0x8, addend: 0x0, symName: __ZNSt3__116reverse_iteratorIPNS_4pairINS1_IdNS1_IiiEEEEiEEEC1B8ue170006ES5_, symObjAddr: 0x6D70, symBinAddr: 0x100007520, symSize: 0x30 }
  - { offsetInCU: 0x12FD4, offset: 0x12FD4, size: 0x8, addend: 0x0, symName: __ZNKSt3__116reverse_iteratorIPNS_4pairINS1_IdNS1_IiiEEEEiEEE4baseB8ue170006Ev, symObjAddr: 0x6DA0, symBinAddr: 0x100007550, symSize: 0x20 }
  - { offsetInCU: 0x12FF9, offset: 0x12FF9, size: 0x8, addend: 0x0, symName: __ZNKSt3__16vectorINS_4pairINS1_IdNS1_IiiEEEEiEENS_9allocatorIS4_EEE14__annotate_newB8ue170006Em, symObjAddr: 0x6E00, symBinAddr: 0x1000075B0, symSize: 0xA0 }
  - { offsetInCU: 0x1302D, offset: 0x1302D, size: 0x8, addend: 0x0, symName: __ZNSt3__129_AllocatorDestroyRangeReverseINS_9allocatorINS_4pairINS2_IdNS2_IiiEEEEiEEEENS_16reverse_iteratorIPS5_EEEC1B8ue170006ERS6_RS9_SC_, symObjAddr: 0x6F00, symBinAddr: 0x1000076B0, symSize: 0x40 }
  - { offsetInCU: 0x13083, offset: 0x13083, size: 0x8, addend: 0x0, symName: __ZNKSt3__116reverse_iteratorIPNS_4pairINS1_IdNS1_IiiEEEEiEEEdeB8ue170006Ev, symObjAddr: 0x6FA0, symBinAddr: 0x100007750, symSize: 0x30 }
  - { offsetInCU: 0x130B6, offset: 0x130B6, size: 0x8, addend: 0x0, symName: __ZNSt3__116reverse_iteratorIPNS_4pairINS1_IdNS1_IiiEEEEiEEEppB8ue170006Ev, symObjAddr: 0x6FD0, symBinAddr: 0x100007780, symSize: 0x20 }
  - { offsetInCU: 0x130DB, offset: 0x130DB, size: 0x8, addend: 0x0, symName: __ZNSt3__128__exception_guard_exceptionsINS_29_AllocatorDestroyRangeReverseINS_9allocatorINS_4pairINS3_IdNS3_IiiEEEEiEEEENS_16reverse_iteratorIPS6_EEEEE10__completeB8ue170006Ev, symObjAddr: 0x6FF0, symBinAddr: 0x1000077A0, symSize: 0x20 }
  - { offsetInCU: 0x13100, offset: 0x13100, size: 0x8, addend: 0x0, symName: __ZNSt3__128__exception_guard_exceptionsINS_29_AllocatorDestroyRangeReverseINS_9allocatorINS_4pairINS3_IdNS3_IiiEEEEiEEEENS_16reverse_iteratorIPS6_EEEEED1B8ue170006Ev, symObjAddr: 0x7010, symBinAddr: 0x1000077C0, symSize: 0x20 }
  - { offsetInCU: 0x13129, offset: 0x13129, size: 0x8, addend: 0x0, symName: __ZNSt3__128__exception_guard_exceptionsINS_29_AllocatorDestroyRangeReverseINS_9allocatorINS_4pairINS3_IdNS3_IiiEEEEiEEEENS_16reverse_iteratorIPS6_EEEEEC1B8ue170006ESB_, symObjAddr: 0x7030, symBinAddr: 0x1000077E0, symSize: 0x40 }
  - { offsetInCU: 0x13160, offset: 0x13160, size: 0x8, addend: 0x0, symName: __ZNSt3__128__exception_guard_exceptionsINS_29_AllocatorDestroyRangeReverseINS_9allocatorINS_4pairINS3_IdNS3_IiiEEEEiEEEENS_16reverse_iteratorIPS6_EEEEEC2B8ue170006ESB_, symObjAddr: 0x7070, symBinAddr: 0x100007820, symSize: 0x30 }
  - { offsetInCU: 0x13197, offset: 0x13197, size: 0x8, addend: 0x0, symName: __ZNSt3__129_AllocatorDestroyRangeReverseINS_9allocatorINS_4pairINS2_IdNS2_IiiEEEEiEEEENS_16reverse_iteratorIPS5_EEEC2B8ue170006ERS6_RS9_SC_, symObjAddr: 0x70A0, symBinAddr: 0x100007850, symSize: 0x40 }
  - { offsetInCU: 0x131F2, offset: 0x131F2, size: 0x8, addend: 0x0, symName: __ZNSt3__119__to_address_helperINS_16reverse_iteratorIPNS_4pairINS2_IdNS2_IiiEEEEiEEEEvE6__callB8ue170006ERKS7_, symObjAddr: 0x70E0, symBinAddr: 0x100007890, symSize: 0x40 }
  - { offsetInCU: 0x13215, offset: 0x13215, size: 0x8, addend: 0x0, symName: __ZNKSt3__116reverse_iteratorIPNS_4pairINS1_IdNS1_IiiEEEEiEEEptB8ue170006Ev, symObjAddr: 0x7120, symBinAddr: 0x1000078D0, symSize: 0x20 }
  - { offsetInCU: 0x1323A, offset: 0x1323A, size: 0x8, addend: 0x0, symName: __ZNSt3__128__exception_guard_exceptionsINS_29_AllocatorDestroyRangeReverseINS_9allocatorINS_4pairINS3_IdNS3_IiiEEEEiEEEENS_16reverse_iteratorIPS6_EEEEED2B8ue170006Ev, symObjAddr: 0x7140, symBinAddr: 0x1000078F0, symSize: 0x40 }
  - { offsetInCU: 0x13263, offset: 0x13263, size: 0x8, addend: 0x0, symName: __ZNKSt3__129_AllocatorDestroyRangeReverseINS_9allocatorINS_4pairINS2_IdNS2_IiiEEEEiEEEENS_16reverse_iteratorIPS5_EEEclB8ue170006Ev, symObjAddr: 0x7180, symBinAddr: 0x100007930, symSize: 0xF0 }
  - { offsetInCU: 0x13289, offset: 0x13289, size: 0x8, addend: 0x0, symName: __ZNSt3__116reverse_iteratorINS0_IPNS_4pairINS1_IdNS1_IiiEEEEiEEEEEC1B8ue170006ES6_, symObjAddr: 0x72E0, symBinAddr: 0x100007A90, symSize: 0x30 }
  - { offsetInCU: 0x132C0, offset: 0x132C0, size: 0x8, addend: 0x0, symName: __ZNSt3__116reverse_iteratorINS0_IPNS_4pairINS1_IdNS1_IiiEEEEiEEEEEppB8ue170006Ev, symObjAddr: 0x7380, symBinAddr: 0x100007B30, symSize: 0x30 }
  - { offsetInCU: 0x132E5, offset: 0x132E5, size: 0x8, addend: 0x0, symName: __ZNKSt3__116reverse_iteratorINS0_IPNS_4pairINS1_IdNS1_IiiEEEEiEEEEE4baseB8ue170006Ev, symObjAddr: 0x73B0, symBinAddr: 0x100007B60, symSize: 0x20 }
  - { offsetInCU: 0x1330F, offset: 0x1330F, size: 0x8, addend: 0x0, symName: __ZNSt3__119__to_address_helperINS_16reverse_iteratorINS1_IPNS_4pairINS2_IdNS2_IiiEEEEiEEEEEEvE6__callB8ue170006ERKS8_, symObjAddr: 0x73D0, symBinAddr: 0x100007B80, symSize: 0x40 }
  - { offsetInCU: 0x13332, offset: 0x13332, size: 0x8, addend: 0x0, symName: __ZNKSt3__116reverse_iteratorINS0_IPNS_4pairINS1_IdNS1_IiiEEEEiEEEEEptB8ue170006Ev, symObjAddr: 0x7410, symBinAddr: 0x100007BC0, symSize: 0x20 }
  - { offsetInCU: 0x13357, offset: 0x13357, size: 0x8, addend: 0x0, symName: __ZNKSt3__116reverse_iteratorINS0_IPNS_4pairINS1_IdNS1_IiiEEEEiEEEEEdeB8ue170006Ev, symObjAddr: 0x7430, symBinAddr: 0x100007BE0, symSize: 0x40 }
  - { offsetInCU: 0x1338A, offset: 0x1338A, size: 0x8, addend: 0x0, symName: __ZNSt3__116reverse_iteratorIPNS_4pairINS1_IdNS1_IiiEEEEiEEEmmB8ue170006Ev, symObjAddr: 0x7470, symBinAddr: 0x100007C20, symSize: 0x20 }
  - { offsetInCU: 0x133AF, offset: 0x133AF, size: 0x8, addend: 0x0, symName: __ZNSt3__116reverse_iteratorINS0_IPNS_4pairINS1_IdNS1_IiiEEEEiEEEEEC2B8ue170006ES6_, symObjAddr: 0x7490, symBinAddr: 0x100007C40, symSize: 0x40 }
  - { offsetInCU: 0x133E6, offset: 0x133E6, size: 0x8, addend: 0x0, symName: __ZNSt3__116reverse_iteratorIPNS_4pairINS1_IdNS1_IiiEEEEiEEEC2B8ue170006ES5_, symObjAddr: 0x74D0, symBinAddr: 0x100007C80, symSize: 0x30 }
  - { offsetInCU: 0x1341D, offset: 0x1341D, size: 0x8, addend: 0x0, symName: __ZNSt3__114__split_bufferINS_4pairINS1_IdNS1_IiiEEEEiEERNS_9allocatorIS4_EEED2Ev, symObjAddr: 0x7500, symBinAddr: 0x100007CB0, symSize: 0x70 }
  - { offsetInCU: 0x13448, offset: 0x13448, size: 0x8, addend: 0x0, symName: __ZNSt3__114__split_bufferINS_4pairINS1_IdNS1_IiiEEEEiEERNS_9allocatorIS4_EEE5clearB8ue170006Ev, symObjAddr: 0x7570, symBinAddr: 0x100007D20, symSize: 0x20 }
  - { offsetInCU: 0x1346D, offset: 0x1346D, size: 0x8, addend: 0x0, symName: __ZNKSt3__114__split_bufferINS_4pairINS1_IdNS1_IiiEEEEiEERNS_9allocatorIS4_EEE8capacityB8ue170006Ev, symObjAddr: 0x7590, symBinAddr: 0x100007D40, symSize: 0x40 }
  - { offsetInCU: 0x13492, offset: 0x13492, size: 0x8, addend: 0x0, symName: __ZNSt3__114__split_bufferINS_4pairINS1_IdNS1_IiiEEEEiEERNS_9allocatorIS4_EEE17__destruct_at_endB8ue170006EPS4_, symObjAddr: 0x75D0, symBinAddr: 0x100007D80, symSize: 0x30 }
  - { offsetInCU: 0x134C4, offset: 0x134C4, size: 0x8, addend: 0x0, symName: __ZNSt3__114__split_bufferINS_4pairINS1_IdNS1_IiiEEEEiEERNS_9allocatorIS4_EEE17__destruct_at_endB8ue170006EPS4_NS_17integral_constantIbLb0EEE, symObjAddr: 0x7600, symBinAddr: 0x100007DB0, symSize: 0x80 }
  - { offsetInCU: 0x13503, offset: 0x13503, size: 0x8, addend: 0x0, symName: __ZNKSt3__114__split_bufferINS_4pairINS1_IdNS1_IiiEEEEiEERNS_9allocatorIS4_EEE9__end_capB8ue170006Ev, symObjAddr: 0x7680, symBinAddr: 0x100007E30, symSize: 0x20 }
  - { offsetInCU: 0x13528, offset: 0x13528, size: 0x8, addend: 0x0, symName: __ZNKSt3__117__compressed_pairIPNS_4pairINS1_IdNS1_IiiEEEEiEERNS_9allocatorIS4_EEE5firstB8ue170006Ev, symObjAddr: 0x76A0, symBinAddr: 0x100007E50, symSize: 0x20 }
  - { offsetInCU: 0x1354D, offset: 0x1354D, size: 0x8, addend: 0x0, symName: __ZNKSt3__111__wrap_iterIPNS_4pairINS1_IdNS1_IiiEEEEiEEE4baseB8ue170006Ev, symObjAddr: 0x78B0, symBinAddr: 0x100008060, symSize: 0x20 }
  - { offsetInCU: 0x13572, offset: 0x13572, size: 0x8, addend: 0x0, symName: __ZNKSt3__111__wrap_iterIPNS_4pairINS1_IdNS1_IiiEEEEiEEEplB8ue170006El, symObjAddr: 0x78D0, symBinAddr: 0x100008080, symSize: 0x40 }
  - { offsetInCU: 0x135B3, offset: 0x135B3, size: 0x8, addend: 0x0, symName: __ZN10CompareSumclERKNSt3__14pairINS1_IdNS1_IiiEEEEiEES6_, symObjAddr: 0x7910, symBinAddr: 0x1000080C0, symSize: 0x30 }
  - { offsetInCU: 0x135F4, offset: 0x135F4, size: 0x8, addend: 0x0, symName: __ZNKSt3__111__wrap_iterIPNS_4pairINS1_IdNS1_IiiEEEEiEEEdeB8ue170006Ev, symObjAddr: 0x7940, symBinAddr: 0x1000080F0, symSize: 0x20 }
  - { offsetInCU: 0x13619, offset: 0x13619, size: 0x8, addend: 0x0, symName: __ZNSt3__111__wrap_iterIPNS_4pairINS1_IdNS1_IiiEEEEiEEEmmB8ue170006Ev, symObjAddr: 0x7960, symBinAddr: 0x100008110, symSize: 0x20 }
  - { offsetInCU: 0x1363E, offset: 0x1363E, size: 0x8, addend: 0x0, symName: __ZNSt3__18_IterOpsINS_17_ClassicAlgPolicyEE11__iter_moveB8ue170006IRNS_11__wrap_iterIPNS_4pairINS5_IdNS5_IiiEEEEiEEEEEENS_9enable_ifIXsr12is_referenceIDTdeclsr3stdE7declvalIRT_EEEEE5valueEDTclsr3stdE4movedeclsr3stdE7declvalISE_EEEEE4typeEOSD_, symObjAddr: 0x7980, symBinAddr: 0x100008130, symSize: 0x20 }
  - { offsetInCU: 0x1366A, offset: 0x1366A, size: 0x8, addend: 0x0, symName: __ZNSt3__14pairINS0_IdNS0_IiiEEEEiEaSB8ue170006EOS3_, symObjAddr: 0x79A0, symBinAddr: 0x100008150, symSize: 0x40 }
  - { offsetInCU: 0x1369E, offset: 0x1369E, size: 0x8, addend: 0x0, symName: __ZNSt3__111__wrap_iterIPNS_4pairINS1_IdNS1_IiiEEEEiEEEpLB8ue170006El, symObjAddr: 0x79E0, symBinAddr: 0x100008190, symSize: 0x20 }
  - { offsetInCU: 0x136D1, offset: 0x136D1, size: 0x8, addend: 0x0, symName: __ZNSt3__18_IterOpsINS_17_ClassicAlgPolicyEE25__validate_iter_referenceB8ue170006IRNS_11__wrap_iterIPNS_4pairINS5_IdNS5_IiiEEEEiEEEEEEvv, symObjAddr: 0x7A00, symBinAddr: 0x1000081B0, symSize: 0x10 }
  - { offsetInCU: 0x136EF, offset: 0x136EF, size: 0x8, addend: 0x0, symName: __ZNSt3__16vectorINS_4pairINS1_IdNS1_IiiEEEEiEENS_9allocatorIS4_EEE11__make_iterB8ue170006EPS4_, symObjAddr: 0x7A10, symBinAddr: 0x1000081C0, symSize: 0x30 }
  - { offsetInCU: 0x13723, offset: 0x13723, size: 0x8, addend: 0x0, symName: __ZNSt3__111__wrap_iterIPNS_4pairINS1_IdNS1_IiiEEEEiEEEC1B8ue170006ES5_, symObjAddr: 0x7A40, symBinAddr: 0x1000081F0, symSize: 0x30 }
  - { offsetInCU: 0x1375A, offset: 0x1375A, size: 0x8, addend: 0x0, symName: __ZNSt3__111__wrap_iterIPNS_4pairINS1_IdNS1_IiiEEEEiEEEC2B8ue170006ES5_, symObjAddr: 0x7A70, symBinAddr: 0x100008220, symSize: 0x20 }
  - { offsetInCU: 0x13790, offset: 0x13790, size: 0x8, addend: 0x0, symName: __ZNSt3__16vectorINS_4pairINS1_IdNS1_IiiEEEEiEENS_9allocatorIS4_EEE8pop_backEv, symObjAddr: 0x7AE0, symBinAddr: 0x100008290, symSize: 0x30 }
  - { offsetInCU: 0x137B7, offset: 0x137B7, size: 0x8, addend: 0x0, symName: __ZNSt3__111__wrap_iterIPNS_4pairINS1_IdNS1_IiiEEEEiEEEppB8ue170006Ev, symObjAddr: 0x7DB0, symBinAddr: 0x100008560, symSize: 0x20 }
  - { offsetInCU: 0x137DC, offset: 0x137DC, size: 0x8, addend: 0x0, symName: __ZNSt3__16vectorINS_4pairINS1_IdNS1_IiiEEEEiEENS_9allocatorIS4_EEE17__destruct_at_endB8ue170006EPS4_, symObjAddr: 0x7DD0, symBinAddr: 0x100008580, symSize: 0x50 }
  - { offsetInCU: 0x1381F, offset: 0x1381F, size: 0x8, addend: 0x0, symName: __ZNKSt3__16vectorINS_4pairINS1_IdNS1_IiiEEEEiEENS_9allocatorIS4_EEE17__annotate_shrinkB8ue170006Em, symObjAddr: 0x7E20, symBinAddr: 0x1000085D0, symSize: 0xA0 }
  - { offsetInCU: 0x13853, offset: 0x13853, size: 0x8, addend: 0x0, symName: __ZNKSt3__16vectorINS_4pairINS1_IdNS1_IiiEEEEiEENS_9allocatorIS4_EEE5emptyB8ue170006Ev, symObjAddr: 0x7EC0, symBinAddr: 0x100008670, symSize: 0x20 }
  - { offsetInCU: 0x13878, offset: 0x13878, size: 0x8, addend: 0x0, symName: __ZNKSt3__16vectorINS_4pairINS1_IdNS1_IiiEEEEiEENS_9allocatorIS4_EEE5frontB8ue170006Ev, symObjAddr: 0x7EE0, symBinAddr: 0x100008690, symSize: 0x11 }
...
